libxpum.so.1:_Z11genDebugLogPKc
libxpum.so.1:_Z12createTmpDirRKNSt7__cxx1112basic_stringIcSt11char_traitsIcESaIcEEE
libxpum.so.1:_Z14getLibCurlPathB5cxx11v
libxpum.so.1:_Z19getUsbInterfaceNameNSt7__cxx1112basic_stringIcSt11char_traitsIcESaIcEEES4_
libxpum.so.1:_Z22print_device_fw_statusB5cxx11P18igsc_device_handle
libxpum.so.1:_Z23dump_sensor_fc_discreteP14sensor_reading
libxpum.so.1:_Z24ipmi_sdr_get_unit_stringbhhh
libxpum.so.1:_Z25dump_sensor_fc_thredsholdPKcP14sensor_reading
libxpum.so.1:_Z26ipmi_sdr_get_thresh_statusP14sensor_readingPKc
libxpum.so.1:_Z26ipmi_sdr_read_sensor_valueP24sdr_record_common_sensorhiP8ipmi_buf
libxpum.so.1:_Z26sdr_convert_sensor_readingP22sdr_record_full_sensorh
libxpum.so.1:_Z27getDeviceModelByPciDeviceIdi
libxpum.so.1:_Z7getUUIDRNSt7__cxx1112basic_stringIcSt11char_traitsIcESaIcEEE
libxpum.so.1:_Z7tarBallRKNSt7__cxx1112basic_stringIcSt11char_traitsIcESaIcEEEPKc
libxpum.so.1:_Z9copyFilesRKNSt7__cxx1112basic_stringIcSt11char_traitsIcESaIcEEE
libxpum.so.1:_Z9genCmdOutRKNSt7__cxx1112basic_stringIcSt11char_traitsIcESaIcEEE
libxpum.so.1:_Z9removeTmpRKNSt7__cxx1112basic_stringIcSt11char_traitsIcESaIcEEE
libxpum.so.1:_ZN4xpum10EngineInfo8setIndexEj
libxpum.so.1:_ZN4xpum10EngineInfoC1E19_zes_engine_group_tbj
libxpum.so.1:_ZN4xpum10EngineInfoC1ERKS0_
libxpum.so.1:_ZN4xpum10EngineInfoC1Ev
libxpum.so.1:_ZN4xpum10EngineInfoC2E19_zes_engine_group_tbj
libxpum.so.1:_ZN4xpum10EngineInfoC2ERKS0_
libxpum.so.1:_ZN4xpum10EngineInfoC2Ev
libxpum.so.1:_ZN4xpum10EngineInfoD0Ev
libxpum.so.1:_ZN4xpum10EngineInfoD1Ev
libxpum.so.1:_ZN4xpum10EngineInfoD2Ev
libxpum.so.1:_ZN4xpum10FwDataMgmt11flashFwDataERNS_16FlashFwDataParamE
libxpum.so.1:_ZN4xpum10FwDataMgmt13isUpgradingFwEv
libxpum.so.1:_ZN4xpum10FwDataMgmt16getFwDataVersionEv
libxpum.so.1:_ZN4xpum10FwDataMgmt20getFlashFwDataResultERNS_25GetFlashFwDataResultParamE
libxpum.so.1:_ZN4xpum10FwDataMgmt7isReadyEv
libxpum.so.1:_ZN4xpum10SharedData7getDataB5cxx11Ev
libxpum.so.1:_ZN4xpum10SharedData7getTimeEv
libxpum.so.1:_ZN4xpum10SharedDataC1ExSt10shared_ptrISt3mapINSt7__cxx1112basic_stringIcSt11char_traitsIcESaIcEEES1_INS_15MeasurementDataEESt4lessIS8_ESaISt4pairIKS8_SA_EEEE
libxpum.so.1:_ZN4xpum10SharedDataC2ExSt10shared_ptrISt3mapINSt7__cxx1112basic_stringIcSt11char_traitsIcESaIcEEES1_INS_15MeasurementDataEESt4lessIS8_ESaISt4pairIKS8_SA_EEEE
libxpum.so.1:_ZN4xpum10SharedDataD0Ev
libxpum.so.1:_ZN4xpum10SharedDataD1Ev
libxpum.so.1:_ZN4xpum10SharedDataD2Ev
libxpum.so.1:_ZN4xpum10clean_dataEv
libxpum.so.1:_ZN4xpum10getPSCDataERSt6vectorIhSaIhEE
libxpum.so.1:_ZN4xpum10memoryFreeERKP20_ze_context_handle_tPKv
libxpum.so.1:_ZN4xpum10write_fileEPKcPKhm
libxpum.so.1:_ZN4xpum11DataHandler13getLatestDataERNSt7__cxx1112basic_stringIcSt11char_traitsIcESaIcEEE
libxpum.so.1:_ZN4xpum11DataHandler19getLatestStatisticsERNSt7__cxx1112basic_stringIcSt11char_traitsIcESaIcEEEm
libxpum.so.1:_ZN4xpum11DataHandler19updateDataInHandlerERSt10shared_ptrINS_10SharedDataEE
libxpum.so.1:_ZN4xpum11DataHandler4initEv
libxpum.so.1:_ZN4xpum11DataHandler5closeEv
libxpum.so.1:_ZN4xpum11DataHandlerC1ENS_15MeasurementTypeERSt10shared_ptrINS_11PersistencyEE
libxpum.so.1:_ZN4xpum11DataHandlerC2ENS_15MeasurementTypeERSt10shared_ptrINS_11PersistencyEE
libxpum.so.1:_ZN4xpum11DataHandlerD0Ev
libxpum.so.1:_ZN4xpum11DataHandlerD1Ev
libxpum.so.1:_ZN4xpum11DataHandlerD2Ev
libxpum.so.1:_ZN4xpum11MonitorTask13getCapabilityEv
libxpum.so.1:_ZN4xpum11MonitorTask4stopEv
libxpum.so.1:_ZN4xpum11MonitorTask5startERSt10shared_ptrINS_19ScheduledThreadPoolEE
libxpum.so.1:_ZN4xpum11MonitorTask7getTypeEv
libxpum.so.1:_ZN4xpum11MonitorTask8finishedEv
libxpum.so.1:_ZN4xpum11MonitorTaskC1ENS_16DeviceCapabilityEiRSt10shared_ptrINS_22DeviceManagerInterfaceEERS2_INS_18DataLogicInterfaceEE
libxpum.so.1:_ZN4xpum11MonitorTaskC1ENS_16DeviceCapabilityEiRSt10shared_ptrINS_22DeviceManagerInterfaceEERS2_INS_18DataLogicInterfaceEENS_15MonitorTaskTypeE
libxpum.so.1:_ZN4xpum11MonitorTaskC2ENS_16DeviceCapabilityEiRSt10shared_ptrINS_22DeviceManagerInterfaceEERS2_INS_18DataLogicInterfaceEE
libxpum.so.1:_ZN4xpum11MonitorTaskC2ENS_16DeviceCapabilityEiRSt10shared_ptrINS_22DeviceManagerInterfaceEERS2_INS_18DataLogicInterfaceEENS_15MonitorTaskTypeE
libxpum.so.1:_ZN4xpum11MonitorTaskD0Ev
libxpum.so.1:_ZN4xpum11MonitorTaskD1Ev
libxpum.so.1:_ZN4xpum11MonitorTaskD2Ev
libxpum.so.1:_ZN4xpum11PCIeManager17getLatestPCIeReadENSt7__cxx1112basic_stringIcSt11char_traitsIcESaIcEEE
libxpum.so.1:_ZN4xpum11PCIeManager18getLatestPCIeWriteENSt7__cxx1112basic_stringIcSt11char_traitsIcESaIcEEE
libxpum.so.1:_ZN4xpum11PCIeManager27getLatestPCIeReadThroughputENSt7__cxx1112basic_stringIcSt11char_traitsIcESaIcEEE
libxpum.so.1:_ZN4xpum11PCIeManager28getLatestPCIeWriteThroughputENSt7__cxx1112basic_stringIcSt11char_traitsIcESaIcEEE
libxpum.so.1:_ZN4xpum11PCIeManager4initEv
libxpum.so.1:_ZN4xpum11PCIeManager5closeEv
libxpum.so.1:_ZN4xpum11PCIeManagerC1Ev
libxpum.so.1:_ZN4xpum11PCIeManagerC2Ev
libxpum.so.1:_ZN4xpum11PCIeManagerD0Ev
libxpum.so.1:_ZN4xpum11PCIeManagerD1Ev
libxpum.so.1:_ZN4xpum11PCIeManagerD2Ev
libxpum.so.1:_ZN4xpum11PciDatabase13parse_level_0ERKNSt7__cxx1112basic_stringIcSt11char_traitsIcESaIcEEEiPNS_7id_typeEPiPm
libxpum.so.1:_ZN4xpum11PciDatabase13parse_level_1ERKNSt7__cxx1112basic_stringIcSt11char_traitsIcESaIcEEEiPNS_7id_typeEPiPm
libxpum.so.1:_ZN4xpum11PciDatabase13parse_level_2ERKNSt7__cxx1112basic_stringIcSt11char_traitsIcESaIcEEEiPNS_7id_typeEPiSB_Pm
libxpum.so.1:_ZN4xpum11PciDatabase14is_blank_spaceEc
libxpum.so.1:_ZN4xpum11PciDatabase16parse_pci_deviceERSt14basic_ifstreamIcSt11char_traitsIcEE
libxpum.so.1:_ZN4xpum11PciDatabase17add_switch_deviceEiiRNSt7__cxx1112basic_stringIcSt11char_traitsIcESaIcEEES7_iiS7_
libxpum.so.1:_ZN4xpum11PciDatabase19parse_device_configERSt14basic_ifstreamIcSt11char_traitsIcEE
libxpum.so.1:_ZN4xpum11PciDatabase4initEv
libxpum.so.1:_ZN4xpum11PciDatabase8instanceEv
libxpum.so.1:_ZN4xpum11PciDatabase9getDeviceEii
libxpum.so.1:_ZN4xpum11PciDatabaseC1Ev
libxpum.so.1:_ZN4xpum11PciDatabaseC2Ev
libxpum.so.1:_ZN4xpum11PciDatabaseD1Ev
libxpum.so.1:_ZN4xpum11PciDatabaseD2Ev
libxpum.so.1:_ZN4xpum11VgpuManager11removeAllVfEi
libxpum.so.1:_ZN4xpum11VgpuManager12getVfMetricsEiRSt6vectorINS_16xpum_vf_metric_tESaIS2_EEPj
libxpum.so.1:_ZN4xpum11VgpuManager13loadSriovDataEiRNS_15DeviceSriovInfoE
libxpum.so.1:_ZN4xpum11VgpuManager15getFunctionListEiRSt6vectorINS_25xpum_vgpu_function_info_tESaIS2_EE
libxpum.so.1:_ZN4xpum11VgpuManager16createVfInternalERKNS_15DeviceSriovInfoERNS_18AttrFromConfigFileEjm
libxpum.so.1:_ZN4xpum11VgpuManager18readConfigFromFileEijRNS_18AttrFromConfigFileE
libxpum.so.1:_ZN4xpum11VgpuManager18vgpuValidateDeviceEi
libxpum.so.1:_ZN4xpum11VgpuManager18writeVfAttrToSysfsENSt7__cxx1112basic_stringIcSt11char_traitsIcESaIcEEENS_18AttrFromConfigFileEm
libxpum.so.1:_ZN4xpum11VgpuManager7getVfIdERjPKcji
libxpum.so.1:_ZN4xpum11VgpuManager8createVfEiPNS_18xpum_vgpu_config_tE
libxpum.so.1:_ZN4xpum11VgpuManager8getVfBdfEPcjji
libxpum.so.1:_ZN4xpum11VgpuManager8readFileERKNSt7__cxx1112basic_stringIcSt11char_traitsIcESaIcEEERS6_
libxpum.so.1:_ZN4xpum11VgpuManager9writeFileENSt7__cxx1112basic_stringIcSt11char_traitsIcESaIcEEERKS6_
libxpum.so.1:_ZN4xpum11execCommandERKNSt7__cxx1112basic_stringIcSt11char_traitsIcESaIcEEE
libxpum.so.1:_ZN4xpum11isPathExistERKNSt7__cxx1112basic_stringIcSt11char_traitsIcESaIcEEE
libxpum.so.1:_ZN4xpum11memoryAllocERKP20_ze_context_handle_tP19_ze_device_handle_tmmPPv
libxpum.so.1:_ZN4xpum11read_sensorEv
libxpum.so.1:_ZN4xpum12GroupManager11createGroupEPKcPjb
libxpum.so.1:_ZN4xpum12GroupManager12destroyGroupEj
libxpum.so.1:_ZN4xpum12GroupManager12getGroupByIdEj
libxpum.so.1:_ZN4xpum12GroupManager12getGroupInfoEjPNS_17xpum_group_info_tE
libxpum.so.1:_ZN4xpum12GroupManager14getAllGroupIdsEPjPi
libxpum.so.1:_ZN4xpum12GroupManager16addDeviceToGroupEji
libxpum.so.1:_ZN4xpum12GroupManager18createBuildInGroupEbiiNSt7__cxx1112basic_stringIcSt11char_traitsIcESaIcEEES6_
libxpum.so.1:_ZN4xpum12GroupManager18createBuildInGroupEv
libxpum.so.1:_ZN4xpum12GroupManager21removeDeviceFromGroupEji
libxpum.so.1:_ZN4xpum12GroupManager28copySlotNameForBuildinGroupsEv
libxpum.so.1:_ZN4xpum12GroupManager4initEv
libxpum.so.1:_ZN4xpum12GroupManager5closeEv
libxpum.so.1:_ZN4xpum12GroupManagerC1ERSt10shared_ptrINS_22DeviceManagerInterfaceEERS1_INS_18DataLogicInterfaceEE
libxpum.so.1:_ZN4xpum12GroupManagerC2ERSt10shared_ptrINS_22DeviceManagerInterfaceEERS1_INS_18DataLogicInterfaceEE
libxpum.so.1:_ZN4xpum12GroupManagerD0Ev
libxpum.so.1:_ZN4xpum12GroupManagerD1Ev
libxpum.so.1:_ZN4xpum12GroupManagerD2Ev
libxpum.so.1:_ZN4xpum12cmd_firmwareEPKcPj
libxpum.so.1:_ZN4xpum12free_buffersERKP20_ze_context_handle_tSt6vectorIjSaIjEES4_IPvSaIS7_EES9_Pc
libxpum.so.1:_ZN4xpum12get_fru_dataEPNS_14ipmi_address_tEtPh
libxpum.so.1:_ZN4xpum12get_sdr_listERNS_8nrv_cardE
libxpum.so.1:_ZN4xpum12kernelCreateEP19_ze_module_handle_tNSt7__cxx1112basic_stringIcSt11char_traitsIcESaIcEEEPP19_ze_kernel_handle_t
libxpum.so.1:_ZN4xpum12moduleCreateERKP20_ze_context_handle_tP19_ze_device_handle_tSt6vectorIhSaIhEEPP19_ze_module_handle_t
libxpum.so.1:_ZN4xpum12perform_copyESt6vectorIjSaIjEES0_INS_26DeviceCmdQueueAndListPairsESaIS3_EES2_S0_IPvSaIS6_EES8_mS0_IS0_IbSaIbEESaISA_EE
libxpum.so.1:_ZN4xpum12vgpuPrecheckEPNS_27xpum_vgpu_precheck_result_tE
libxpum.so.1:_ZN4xpum13Configuration15initPerfMetricsEv
libxpum.so.1:_ZN4xpum13Configuration17initEnabledGPUIdsEv
libxpum.so.1:_ZN4xpum13Configuration18initEnabledMetricsEv
libxpum.so.1:_ZN4xpum13DBPersistency27storeData2PersistentStorageENS_15MeasurementTypeExRSt3mapINSt7__cxx1112basic_stringIcSt11char_traitsIcESaIcEEESt10shared_ptrINS_15MeasurementDataEESt4lessIS8_ESaISt4pairIKS8_SB_EEE
libxpum.so.1:_ZN4xpum13DeviceManager11getEccStateERKNSt7__cxx1112basic_stringIcSt11char_traitsIcESaIcEEERNS_9MemoryEccE
libxpum.so.1:_ZN4xpum13DeviceManager11resetDeviceERKNSt7__cxx1112basic_stringIcSt11char_traitsIcESaIcEEEb
libxpum.so.1:_ZN4xpum13DeviceManager11setEccStateERKNSt7__cxx1112basic_stringIcSt11char_traitsIcESaIcEEERNS_12_ecc_state_tERNS_9MemoryEccE
libxpum.so.1:_ZN4xpum13DeviceManager13getDeviceListENS_16DeviceCapabilityERSt6vectorISt10shared_ptrINS_6DeviceEESaIS5_EE
libxpum.so.1:_ZN4xpum13DeviceManager13getDeviceListERSt6vectorISt10shared_ptrINS_6DeviceEESaIS4_EE
libxpum.so.1:_ZN4xpum13DeviceManager13getSystemInfoEv
libxpum.so.1:_ZN4xpum13DeviceManager13unlockDevicesERKSt6vectorINSt7__cxx1112basic_stringIcSt11char_traitsIcESaIcEEESaIS7_EE
libxpum.so.1:_ZN4xpum13DeviceManager13unlockDevicesERSt6vectorISt10shared_ptrINS_6DeviceEESaIS4_EE
libxpum.so.1:_ZN4xpum13DeviceManager14getDevicebyBDFERKNSt7__cxx1112basic_stringIcSt11char_traitsIcESaIcEEE
libxpum.so.1:_ZN4xpum13DeviceManager14getFabricPortsERKNSt7__cxx1112basic_stringIcSt11char_traitsIcESaIcEEERSt6vectorINS_9port_infoESaISA_EE
libxpum.so.1:_ZN4xpum13DeviceManager14initSystemInfoEv
libxpum.so.1:_ZN4xpum13DeviceManager14setFabricPortsERKNSt7__cxx1112basic_stringIcSt11char_traitsIcESaIcEEERKNS_13port_info_setE
libxpum.so.1:_ZN4xpum13DeviceManager14tryLockDevicesERKSt6vectorINSt7__cxx1112basic_stringIcSt11char_traitsIcESaIcEEESaIS7_EE
libxpum.so.1:_ZN4xpum13DeviceManager14tryLockDevicesERSt6vectorISt10shared_ptrINS_6DeviceEESaIS4_EE
libxpum.so.1:_ZN4xpum13DeviceManager15getDeviceHandleERKNSt7__cxx1112basic_stringIcSt11char_traitsIcESaIcEEE
libxpum.so.1:_ZN4xpum13DeviceManager16getPPRDiagHandleERKNSt7__cxx1112basic_stringIcSt11char_traitsIcESaIcEEERP18_zes_diag_handle_t
libxpum.so.1:_ZN4xpum13DeviceManager16setDeviceStandbyERKNSt7__cxx1112basic_stringIcSt11char_traitsIcESaIcEEERKNS_7StandbyE
libxpum.so.1:_ZN4xpum13DeviceManager17getDeviceStandbysERKNSt7__cxx1112basic_stringIcSt11char_traitsIcESaIcEEERSt6vectorINS_7StandbyESaISA_EE
libxpum.so.1:_ZN4xpum13DeviceManager19discoverFabricLinksEv
libxpum.so.1:_ZN4xpum13DeviceManager19getDevicePowerPropsERKNSt7__cxx1112basic_stringIcSt11char_traitsIcESaIcEEERSt6vectorINS_5PowerESaISA_EE
libxpum.so.1:_ZN4xpum13DeviceManager19getDeviceSchedulersERKNSt7__cxx1112basic_stringIcSt11char_traitsIcESaIcEEERSt6vectorINS_9SchedulerESaISA_EE
libxpum.so.1:_ZN4xpum13DeviceManager20getDevicePowerLimitsERKNSt7__cxx1112basic_stringIcSt11char_traitsIcESaIcEEERNS_23Power_sustained_limit_tERNS_19Power_burst_limit_tERNS_18Power_peak_limit_tE
libxpum.so.1:_ZN4xpum13DeviceManager20getPerformanceFactorERKNSt7__cxx1112basic_stringIcSt11char_traitsIcESaIcEEERSt6vectorINS_17PerformanceFactorESaISA_EE
libxpum.so.1:_ZN4xpum13DeviceManager20setPerformanceFactorERKNSt7__cxx1112basic_stringIcSt11char_traitsIcESaIcEEERNS_17PerformanceFactorE
libxpum.so.1:_ZN4xpum13DeviceManager21getDeviceIDByFabricIDB5cxx11Em
libxpum.so.1:_ZN4xpum13DeviceManager21getDeviceProcessStateERKNSt7__cxx1112basic_stringIcSt11char_traitsIcESaIcEEERSt6vectorINS_14device_processESaISA_EE
libxpum.so.1:_ZN4xpum13DeviceManager22getDeviceUtilByProcessERKNSt7__cxx1112basic_stringIcSt11char_traitsIcESaIcEEEjRSt6vectorIS9_INS_19device_util_by_procESaISA_EESaISC_EE
libxpum.so.1:_ZN4xpum13DeviceManager22getFreqAvailableClocksERKNSt7__cxx1112basic_stringIcSt11char_traitsIcESaIcEEEjRSt6vectorIdSaIdEE
libxpum.so.1:_ZN4xpum13DeviceManager23setDeviceFrequencyRangeERKNSt7__cxx1112basic_stringIcSt11char_traitsIcESaIcEEERKNS_9FrequencyE
libxpum.so.1:_ZN4xpum13DeviceManager24getDeviceFrequencyRangesERKNSt7__cxx1112basic_stringIcSt11char_traitsIcESaIcEEERSt6vectorINS_9FrequencyESaISA_EE
libxpum.so.1:_ZN4xpum13DeviceManager24setDevicePowerPeakLimitsERKNSt7__cxx1112basic_stringIcSt11char_traitsIcESaIcEEERKNS_18Power_peak_limit_tE
libxpum.so.1:_ZN4xpum13DeviceManager25setDevicePowerBurstLimitsERKNSt7__cxx1112basic_stringIcSt11char_traitsIcESaIcEEERKNS_19Power_burst_limit_tE
libxpum.so.1:_ZN4xpum13DeviceManager26getRealtimeMeasurementDataENS_15MeasurementTypeERNSt7__cxx1112basic_stringIcSt11char_traitsIcESaIcEEE
libxpum.so.1:_ZN4xpum13DeviceManager27setDeviceSchedulerDebugModeERKNSt7__cxx1112basic_stringIcSt11char_traitsIcESaIcEEERKNS_18SchedulerDebugModeE
libxpum.so.1:_ZN4xpum13DeviceManager29setDeviceFrequencyRangeForAllERKNSt7__cxx1112basic_stringIcSt11char_traitsIcESaIcEEERKNS_9FrequencyE
libxpum.so.1:_ZN4xpum13DeviceManager29setDevicePowerSustainedLimitsERKNSt7__cxx1112basic_stringIcSt11char_traitsIcESaIcEEEiRKNS_23Power_sustained_limit_tE
libxpum.so.1:_ZN4xpum13DeviceManager29setDeviceSchedulerTimeoutModeERKNSt7__cxx1112basic_stringIcSt11char_traitsIcESaIcEEERKNS_20SchedulerTimeoutModeE
libxpum.so.1:_ZN4xpum13DeviceManager31setDeviceSchedulerExclusiveModeERKNSt7__cxx1112basic_stringIcSt11char_traitsIcESaIcEEERKNS_22SchedulerExclusiveModeE
libxpum.so.1:_ZN4xpum13DeviceManager31setDeviceSchedulerTimesliceModeERKNSt7__cxx1112basic_stringIcSt11char_traitsIcESaIcEEERKNS_22SchedulerTimesliceModeE
libxpum.so.1:_ZN4xpum13DeviceManager4initEv
libxpum.so.1:_ZN4xpum13DeviceManager5closeEv
libxpum.so.1:_ZN4xpum13DeviceManager9getDeviceERKNSt7__cxx1112basic_stringIcSt11char_traitsIcESaIcEEE
libxpum.so.1:_ZN4xpum13DeviceManagerC1ERSt10shared_ptrINS_18DataLogicInterfaceEE
libxpum.so.1:_ZN4xpum13DeviceManagerC2ERSt10shared_ptrINS_18DataLogicInterfaceEE
libxpum.so.1:_ZN4xpum13DeviceManagerD0Ev
libxpum.so.1:_ZN4xpum13DeviceManagerD1Ev
libxpum.so.1:_ZN4xpum13DeviceManagerD2Ev
libxpum.so.1:_ZN4xpum13GPUDeviceStub10getPciSlotB5cxx11E18_zes_pci_address_t
libxpum.so.1:_ZN4xpum13GPUDeviceStub10isDevEntryERKNSt7__cxx1112basic_stringIcSt11char_traitsIcESaIcEEE
libxpum.so.1:_ZN4xpum13GPUDeviceStub10setStandbyERKP19_ze_device_handle_tRKNS_7StandbyE
libxpum.so.1:_ZN4xpum13GPUDeviceStub10toDiscoverEv
libxpum.so.1:_ZN4xpum13GPUDeviceStub10toGetPowerERKP19_ze_device_handle_t
libxpum.so.1:_ZN4xpum13GPUDeviceStub11buildErrorsERKSt3mapINSt7__cxx1112basic_stringIcSt11char_traitsIcESaIcEEE12_ze_result_tSt4lessIS7_ESaISt4pairIKS7_S8_EEEPKcj
libxpum.so.1:_ZN4xpum13GPUDeviceStub11getEccStateERKP19_ze_device_handle_tRNS_9MemoryEccE
libxpum.so.1:_ZN4xpum13GPUDeviceStub11getPCIeReadERKP19_ze_device_handle_tSt8functionIFvSt10shared_ptrIvES6_INS_13BaseExceptionEEEE
libxpum.so.1:_ZN4xpum13GPUDeviceStub11getRasErrorERKP19_ze_device_handle_tPm
libxpum.so.1:_ZN4xpum13GPUDeviceStub11getRasErrorERKP19_ze_device_handle_tSt8functionIFvSt10shared_ptrIvES6_INS_13BaseExceptionEEEERK20_zes_ras_error_cat_tRK21_zes_ras_error_type_t
libxpum.so.1:_ZN4xpum13GPUDeviceStub11getStandbysERKP19_ze_device_handle_tRSt6vectorINS_7StandbyESaIS6_EE
libxpum.so.1:_ZN4xpum13GPUDeviceStub11resetDeviceERKP19_ze_device_handle_th
libxpum.so.1:_ZN4xpum13GPUDeviceStub11setEccStateERKP19_ze_device_handle_tRNS_12_ecc_state_tERNS_9MemoryEccE
libxpum.so.1:_ZN4xpum13GPUDeviceStub11toGetEnergyERKP19_ze_device_handle_t
libxpum.so.1:_ZN4xpum13GPUDeviceStub12getDRMDeviceB5cxx11ERK21_zes_pci_properties_t
libxpum.so.1:_ZN4xpum13GPUDeviceStub12getPCIeWriteERKP19_ze_device_handle_tSt8functionIFvSt10shared_ptrIvES6_INS_13BaseExceptionEEEE
libxpum.so.1:_ZN4xpum13GPUDeviceStub13getPowerPropsERKP19_ze_device_handle_tRSt6vectorINS_5PowerESaIS6_EE
libxpum.so.1:_ZN4xpum13GPUDeviceStub13getSchedulersERKP19_ze_device_handle_tRSt6vectorINS_9SchedulerESaIS6_EE
libxpum.so.1:_ZN4xpum13GPUDeviceStub13isOamPlatformEP19_ze_device_handle_t
libxpum.so.1:_ZN4xpum13GPUDeviceStub13toGetPCIeReadERKP19_ze_device_handle_t
libxpum.so.1:_ZN4xpum13GPUDeviceStub13toGetRasErrorERKP19_ze_device_handle_tRK20_zes_ras_error_cat_tRK21_zes_ras_error_type_t
libxpum.so.1:_ZN4xpum13GPUDeviceStub13to_hex_stringB5cxx11Ej
libxpum.so.1:_ZN4xpum13GPUDeviceStub14getFabricPortsERKP19_ze_device_handle_tRSt6vectorINS_9port_infoESaIS6_EE
libxpum.so.1:_ZN4xpum13GPUDeviceStub14getOAMSocketIdB5cxx11E18_zes_pci_address_t
libxpum.so.1:_ZN4xpum13GPUDeviceStub14getPerfMetricsERP19_ze_device_handle_tRP19_ze_driver_handle_tSt8functionIFvSt10shared_ptrIvES8_INS_13BaseExceptionEEEE
libxpum.so.1:_ZN4xpum13GPUDeviceStub14getPowerLimitsERKP19_ze_device_handle_tRNS_23Power_sustained_limit_tERNS_19Power_burst_limit_tERNS_18Power_peak_limit_tE
libxpum.so.1:_ZN4xpum13GPUDeviceStub14getProcessNameB5cxx11Ej
libxpum.so.1:_ZN4xpum13GPUDeviceStub14getTemperatureERKP19_ze_device_handle_tSt8functionIFvSt10shared_ptrIvES6_INS_13BaseExceptionEEEE19_zes_temp_sensors_t
libxpum.so.1:_ZN4xpum13GPUDeviceStub14setFabricPortsERKP19_ze_device_handle_tRKNS_13port_info_setE
libxpum.so.1:_ZN4xpum13GPUDeviceStub14toGetPCIeWriteERKP19_ze_device_handle_t
libxpum.so.1:_ZN4xpum13GPUDeviceStub15addCapabilitiesEP19_ze_device_handle_tRK23_ze_device_properties_tRSt6vectorINS_16DeviceCapabilityESaIS7_EE
libxpum.so.1:_ZN4xpum13GPUDeviceStub15discoverDevicesESt8functionIFvSt10shared_ptrIvES2_INS_13BaseExceptionEEEE
libxpum.so.1:_ZN4xpum13GPUDeviceStub15getHealthStatusERKP19_ze_device_handle_tNS_21xpum_health_type_enumEPNS_18xpum_health_data_tEiiib
libxpum.so.1:_ZN4xpum13GPUDeviceStub15to_regex_stringB5cxx11E18_zes_pci_address_t
libxpum.so.1:_ZN4xpum13GPUDeviceStub16getPPRDiagHandleERKP19_ze_device_handle_tRP18_zes_diag_handle_t
libxpum.so.1:_ZN4xpum13GPUDeviceStub16getPciSlotByPathESt6vectorINSt7__cxx1112basic_stringIcSt11char_traitsIcESaIcEEESaIS7_EE
libxpum.so.1:_ZN4xpum13GPUDeviceStub16toGetPerfMetricsERP19_ze_device_handle_tRP19_ze_driver_handle_t
libxpum.so.1:_ZN4xpum13GPUDeviceStub16toGetTemperatureERKP19_ze_device_handle_t19_zes_temp_sensors_t
libxpum.so.1:_ZN4xpum13GPUDeviceStub17getAllPowerLimitsERKP19_ze_device_handle_tRSt6vectorIjSaIjEERS5_INS_23Power_sustained_limit_tESaIS9_EERS5_INS_19Power_burst_limit_tESaISD_EERS5_INS_18Power_peak_limit_tESaISH_EE
libxpum.so.1:_ZN4xpum13GPUDeviceStub17getFrequencyStateERKP19_ze_device_handle_tRNSt7__cxx1112basic_stringIcSt11char_traitsIcESaIcEEE
libxpum.so.1:_ZN4xpum13GPUDeviceStub17getGPUUtilizationERKP19_ze_device_handle_tSt8functionIFvSt10shared_ptrIvES6_INS_13BaseExceptionEEEE
libxpum.so.1:_ZN4xpum13GPUDeviceStub17loadPVCIdlePowersENSt7__cxx1112basic_stringIcSt11char_traitsIcESaIcEEEbi
libxpum.so.1:_ZN4xpum13GPUDeviceStub17setFrequencyRangeERKP19_ze_device_handle_tRKNS_9FrequencyE
libxpum.so.1:_ZN4xpum13GPUDeviceStub18getFrequencyRangesERKP19_ze_device_handle_tRSt6vectorINS_9FrequencyESaIS6_EE
libxpum.so.1:_ZN4xpum13GPUDeviceStub18setPowerPeakLimitsERKP19_ze_device_handle_tRKNS_18Power_peak_limit_tE
libxpum.so.1:_ZN4xpum13GPUDeviceStub19checkInitDependencyEv
libxpum.so.1:_ZN4xpum13GPUDeviceStub19getDeviceUtilByProcERKSt6vectorIP19_ze_device_handle_tSaIS3_EERKS1_INSt7__cxx1112basic_stringIcSt11char_traitsIcESaIcEEESaISD_EEjRS1_IS1_INS_19device_util_by_procESaISI_EESaISK_EE
libxpum.so.1:_ZN4xpum13GPUDeviceStub19getFabricThroughputERKP19_ze_device_handle_tSt8functionIFvSt10shared_ptrIvES6_INS_13BaseExceptionEEEE
libxpum.so.1:_ZN4xpum13GPUDeviceStub19logSupportedMetricsEP19_ze_device_handle_tRK23_ze_device_properties_tRKSt6vectorINS_16DeviceCapabilityESaIS7_EE
libxpum.so.1:_ZN4xpum13GPUDeviceStub19readPerfMetricsDataERSt10shared_ptrISt3mapIjS1_INS_20DeviceMetricGroups_tEESt4lessIjESaISt4pairIKjS4_EEEERS1_INS_22PerfMetricDeviceData_tEE
libxpum.so.1:_ZN4xpum13GPUDeviceStub19setPowerBurstLimitsERKP19_ze_device_handle_tRKNS_19Power_burst_limit_tE
libxpum.so.1:_ZN4xpum13GPUDeviceStub19toGetGPUUtilizationERKP19_ze_device_handle_t
libxpum.so.1:_ZN4xpum13GPUDeviceStub20getEngineUtilizationERKP19_ze_device_handle_tSt8functionIFvSt10shared_ptrIvES6_INS_13BaseExceptionEEEE
libxpum.so.1:_ZN4xpum13GPUDeviceStub20getEuActiveStallIdleERKP19_ze_device_handle_tRKP19_ze_driver_handle_tNS_15MeasurementTypeESt8functionIFvSt10shared_ptrIvESB_INS_13BaseExceptionEEEE
libxpum.so.1:_ZN4xpum13GPUDeviceStub20getFrequencyThrottleERKP19_ze_device_handle_tSt8functionIFvSt10shared_ptrIvES6_INS_13BaseExceptionEEEE
libxpum.so.1:_ZN4xpum13GPUDeviceStub20getPerformanceFactorERKP19_ze_device_handle_tRSt6vectorINS_17PerformanceFactorESaIS6_EE
libxpum.so.1:_ZN4xpum13GPUDeviceStub20setPerformanceFactorERKP19_ze_device_handle_tRNS_17PerformanceFactorE
libxpum.so.1:_ZN4xpum13GPUDeviceStub21addEngineCapabilitiesEP19_ze_device_handle_tRK23_ze_device_properties_tRSt6vectorINS_16DeviceCapabilityESaIS7_EE
libxpum.so.1:_ZN4xpum13GPUDeviceStub21getDeviceProcessStateERKP19_ze_device_handle_tRSt6vectorINS_14device_processESaIS6_EE
libxpum.so.1:_ZN4xpum13GPUDeviceStub21getPCIeReadThroughputERKP19_ze_device_handle_tSt8functionIFvSt10shared_ptrIvES6_INS_13BaseExceptionEEEE
libxpum.so.1:_ZN4xpum13GPUDeviceStub21setSchedulerDebugModeERKP19_ze_device_handle_tRKNS_18SchedulerDebugModeE
libxpum.so.1:_ZN4xpum13GPUDeviceStub21toGetFabricThroughputERKP19_ze_device_handle_t
libxpum.so.1:_ZN4xpum13GPUDeviceStub22getFreqAvailableClocksERKP19_ze_device_handle_tjRSt6vectorIdSaIdEE
libxpum.so.1:_ZN4xpum13GPUDeviceStub22getPCIeWriteThroughputERKP19_ze_device_handle_tSt8functionIFvSt10shared_ptrIvES6_INS_13BaseExceptionEEEE
libxpum.so.1:_ZN4xpum13GPUDeviceStub22getRasErrorOnSubdeviceERKP19_ze_device_handle_tSt8functionIFvSt10shared_ptrIvES6_INS_13BaseExceptionEEEE
libxpum.so.1:_ZN4xpum13GPUDeviceStub22getRasErrorOnSubdeviceERKP19_ze_device_handle_tSt8functionIFvSt10shared_ptrIvES6_INS_13BaseExceptionEEEERK20_zes_ras_error_cat_tRK21_zes_ras_error_type_t
libxpum.so.1:_ZN4xpum13GPUDeviceStub22toGetEngineUtilizationERKP19_ze_device_handle_t
libxpum.so.1:_ZN4xpum13GPUDeviceStub22toGetEuActiveStallIdleERKP19_ze_device_handle_tRKP19_ze_driver_handle_tNS_15MeasurementTypeE
libxpum.so.1:_ZN4xpum13GPUDeviceStub22toGetFrequencyThrottleERKP19_ze_device_handle_t
libxpum.so.1:_ZN4xpum13GPUDeviceStub23getRegisterValueFromSysENSt7__cxx1112basic_stringIcSt11char_traitsIcESaIcEEEm
libxpum.so.1:_ZN4xpum13GPUDeviceStub23getRegisterValueFromSysEP19_ze_device_handle_tm
libxpum.so.1:_ZN4xpum13GPUDeviceStub23get_health_state_stringB5cxx11E17_zes_mem_health_t
libxpum.so.1:_ZN4xpum13GPUDeviceStub23setFrequencyRangeForAllERKP19_ze_device_handle_tRKNS_9FrequencyE
libxpum.so.1:_ZN4xpum13GPUDeviceStub23setPowerSustainedLimitsERKP19_ze_device_handle_tiRKNS_23Power_sustained_limit_tE
libxpum.so.1:_ZN4xpum13GPUDeviceStub23setSchedulerTimeoutModeERKP19_ze_device_handle_tRKNS_20SchedulerTimeoutModeE
libxpum.so.1:_ZN4xpum13GPUDeviceStub23toGetPCIeReadThroughputERKP19_ze_device_handle_t
libxpum.so.1:_ZN4xpum13GPUDeviceStub24getMemoryUsedUtilizationERKP19_ze_device_handle_tSt8functionIFvSt10shared_ptrIvES6_INS_13BaseExceptionEEEE
libxpum.so.1:_ZN4xpum13GPUDeviceStub24get_freq_throttle_stringB5cxx11Ej
libxpum.so.1:_ZN4xpum13GPUDeviceStub24isPhysicalFunctionDeviceENSt7__cxx1112basic_stringIcSt11char_traitsIcESaIcEEE
libxpum.so.1:_ZN4xpum13GPUDeviceStub24parseMemoryFailedMRCInfoB5cxx11Ej
libxpum.so.1:_ZN4xpum13GPUDeviceStub24toGetPCIeWriteThroughputERKP19_ze_device_handle_t
libxpum.so.1:_ZN4xpum13GPUDeviceStub24toGetRasErrorOnSubdeviceERKP19_ze_device_handle_t
libxpum.so.1:_ZN4xpum13GPUDeviceStub25getDevicePerfMetricGroupsERP19_ze_device_handle_tRP19_ze_driver_handle_t
libxpum.so.1:_ZN4xpum13GPUDeviceStub25getEngineGroupUtilizationERKP19_ze_device_handle_tSt8functionIFvSt10shared_ptrIvES6_INS_13BaseExceptionEEEE19_zes_engine_group_t
libxpum.so.1:_ZN4xpum13GPUDeviceStub25setSchedulerExclusiveModeERKP19_ze_device_handle_tRKNS_22SchedulerExclusiveModeE
libxpum.so.1:_ZN4xpum13GPUDeviceStub25setSchedulerTimesliceModeERKP19_ze_device_handle_tRKNS_22SchedulerTimesliceModeE
libxpum.so.1:_ZN4xpum13GPUDeviceStub26getActuralRequestFrequencyERKP19_ze_device_handle_tSt8functionIFvSt10shared_ptrIvES6_INS_13BaseExceptionEEEE
libxpum.so.1:_ZN4xpum13GPUDeviceStub26getFrequencyThrottleReasonERKP19_ze_device_handle_tSt8functionIFvSt10shared_ptrIvES6_INS_13BaseExceptionEEEE
libxpum.so.1:_ZN4xpum13GPUDeviceStub26hasVirtualFunctionOnDeviceERKP19_ze_device_handle_t
libxpum.so.1:_ZN4xpum13GPUDeviceStub26openDevicePerfMetricStreamERP19_ze_device_handle_tRP19_ze_driver_handle_tRSt10shared_ptrISt3mapIjS7_INS_20DeviceMetricGroups_tEESt4lessIjESaISt4pairIKjSA_EEEERS8_IS2_P20_ze_context_handle_tSB_IS2_ESaISD_IKS2_SL_EEE
libxpum.so.1:_ZN4xpum13GPUDeviceStub26toGetEuActiveStallIdleCoreERKP19_ze_device_handle_tjRKP19_ze_driver_handle_tNS_15MeasurementTypeERSt10shared_ptrINS_15MeasurementDataEE
libxpum.so.1:_ZN4xpum13GPUDeviceStub26toGetMemoryUsedUtilizationERKP19_ze_device_handle_t
libxpum.so.1:_ZN4xpum13GPUDeviceStub27toGetEngineGroupUtilizationERKP19_ze_device_handle_t19_zes_engine_group_t
libxpum.so.1:_ZN4xpum13GPUDeviceStub27toGetRasErrorOnSubdeviceOldERKP19_ze_device_handle_tRK20_zes_ras_error_cat_tRK21_zes_ras_error_type_t
libxpum.so.1:_ZN4xpum13GPUDeviceStub28toGetActuralRequestFrequencyERKP19_ze_device_handle_t
libxpum.so.1:_ZN4xpum13GPUDeviceStub28toGetFrequencyThrottleReasonERKP19_ze_device_handle_t
libxpum.so.1:_ZN4xpum13GPUDeviceStub31getMemoryThroughputAndBandwidthERKP19_ze_device_handle_tSt8functionIFvSt10shared_ptrIvES6_INS_13BaseExceptionEEEE
libxpum.so.1:_ZN4xpum13GPUDeviceStub32addEuActiveStallIdleCapabilitiesEP19_ze_device_handle_tRK23_ze_device_properties_tP19_ze_driver_handle_tRSt6vectorINS_16DeviceCapabilityESaIS9_EE
libxpum.so.1:_ZN4xpum13GPUDeviceStub33toGetMemoryThroughputAndBandwidthERKP19_ze_device_handle_t
libxpum.so.1:_ZN4xpum13GPUDeviceStub4initEv
libxpum.so.1:_ZN4xpum13GPUDeviceStub8getPowerERKP19_ze_device_handle_tSt8functionIFvSt10shared_ptrIvES6_INS_13BaseExceptionEEEE
libxpum.so.1:_ZN4xpum13GPUDeviceStub8instanceEv
libxpum.so.1:_ZN4xpum13GPUDeviceStub9getEnergyERKP19_ze_device_handle_tSt8functionIFvSt10shared_ptrIvES6_INS_13BaseExceptionEEEE
libxpum.so.1:_ZN4xpum13GPUDeviceStub9to_stringB5cxx11E17_ze_device_uuid_t
libxpum.so.1:_ZN4xpum13GPUDeviceStub9to_stringB5cxx11E18_zes_pci_address_t
libxpum.so.1:_ZN4xpum13GPUDeviceStubC1Ev
libxpum.so.1:_ZN4xpum13GPUDeviceStubC2Ev
libxpum.so.1:_ZN4xpum13GPUDeviceStubD1Ev
libxpum.so.1:_ZN4xpum13GPUDeviceStubD2Ev
libxpum.so.1:_ZN4xpum13HealthManager15getHealthConfigEiNS_28xpum_health_config_type_enumEPv
libxpum.so.1:_ZN4xpum13HealthManager15setHealthConfigEiNS_28xpum_health_config_type_enumEPv
libxpum.so.1:_ZN4xpum13HealthManager16getThrottlePowerENSt7__cxx1112basic_stringIcSt11char_traitsIcESaIcEEE
libxpum.so.1:_ZN4xpum13HealthManager26getShutdownCoreTemperatureENSt7__cxx1112basic_stringIcSt11char_traitsIcESaIcEEE
libxpum.so.1:_ZN4xpum13HealthManager26getThrottleCoreTemperatureENSt7__cxx1112basic_stringIcSt11char_traitsIcESaIcEEE
libxpum.so.1:_ZN4xpum13HealthManager28getShutdownMemoryTemperatureENSt7__cxx1112basic_stringIcSt11char_traitsIcESaIcEEE
libxpum.so.1:_ZN4xpum13HealthManager4initEv
libxpum.so.1:_ZN4xpum13HealthManager5closeEv
libxpum.so.1:_ZN4xpum13HealthManager9getHealthEiNS_21xpum_health_type_enumEPNS_18xpum_health_data_tE
libxpum.so.1:_ZN4xpum13HealthManagerC1ERSt10shared_ptrINS_22DeviceManagerInterfaceEERS1_INS_18DataLogicInterfaceEE
libxpum.so.1:_ZN4xpum13HealthManagerC2ERSt10shared_ptrINS_22DeviceManagerInterfaceEERS1_INS_18DataLogicInterfaceEE
libxpum.so.1:_ZN4xpum13HealthManagerD0Ev
libxpum.so.1:_ZN4xpum13HealthManagerD1Ev
libxpum.so.1:_ZN4xpum13HealthManagerD2Ev
libxpum.so.1:_ZN4xpum13PolicyManager11checkPolicyEv
libxpum.so.1:_ZN4xpum13PolicyManager12isGpuExistedEi
libxpum.so.1:_ZN4xpum13PolicyManager13isInDeviceIdsEiPii
libxpum.so.1:_ZN4xpum13PolicyManager13triggerActionESt10shared_ptrINS_16xpum_policy_dataEE
libxpum.so.1:_ZN4xpum13PolicyManager13xpumGetPolicyEiPNS_13xpum_policy_tEPi
libxpum.so.1:_ZN4xpum13PolicyManager13xpumSetPolicyEiNS_13xpum_policy_tE
libxpum.so.1:_ZN4xpum13PolicyManager14isPerGpuMetricENS_21xpum_policy_type_enumE
libxpum.so.1:_ZN4xpum13PolicyManager16handleForOneCyleEv
libxpum.so.1:_ZN4xpum13PolicyManager16savePolicyStatusEv
libxpum.so.1:_ZN4xpum13PolicyManager17getPolicyCurValueESt10shared_ptrINS_16xpum_policy_dataEERNS_21xpum_device_metrics_tE
libxpum.so.1:_ZN4xpum13PolicyManager17isMatchMetricTypeENS_20xpum_stats_type_enumENS_21xpum_policy_type_enumE
libxpum.so.1:_ZN4xpum13PolicyManager18isValidateDeviceIdEi
libxpum.so.1:_ZN4xpum13PolicyManager19resetCheckFrequencyEv
libxpum.so.1:_ZN4xpum13PolicyManager19triggerNotificationESt10shared_ptrINS_16xpum_policy_dataEE
libxpum.so.1:_ZN4xpum13PolicyManager20xpumGetPolicyByGroupEjPNS_13xpum_policy_tEPi
libxpum.so.1:_ZN4xpum13PolicyManager20xpumSetPolicyByGroupEjNS_13xpum_policy_tE
libxpum.so.1:_ZN4xpum13PolicyManager21checkPolicyValidationENS_13xpum_policy_tE
libxpum.so.1:_ZN4xpum13PolicyManager21isPolicyMeetConditionESt10shared_ptrINS_16xpum_policy_dataEE
libxpum.so.1:_ZN4xpum13PolicyManager24xpumGetPolicyByDeviceIdsEPiiPNS_13xpum_policy_tES1_
libxpum.so.1:_ZN4xpum13PolicyManager24xpumSetPolicyByDeviceIdsEPiiNS_13xpum_policy_tE
libxpum.so.1:_ZN4xpum13PolicyManager4initEv
libxpum.so.1:_ZN4xpum13PolicyManager4stopEv
libxpum.so.1:_ZN4xpum13PolicyManager5closeEv
libxpum.so.1:_ZN4xpum13PolicyManager5startEv
libxpum.so.1:_ZN4xpum13PolicyManagerC1ERSt10shared_ptrINS_22DeviceManagerInterfaceEERS1_INS_18DataLogicInterfaceEERS1_INS_21GroupManagerInterfaceEE
libxpum.so.1:_ZN4xpum13PolicyManagerC2ERSt10shared_ptrINS_22DeviceManagerInterfaceEERS1_INS_18DataLogicInterfaceEERS1_INS_21GroupManagerInterfaceEE
libxpum.so.1:_ZN4xpum13PolicyManagerD0Ev
libxpum.so.1:_ZN4xpum13PolicyManagerD1Ev
libxpum.so.1:_ZN4xpum13PolicyManagerD2Ev
libxpum.so.1:_ZN4xpum13calculateMeanERKSt6vectorIdSaIdEE
libxpum.so.1:_ZN4xpum13contextCreateEP19_ze_driver_handle_tPP20_ze_context_handle_t
libxpum.so.1:_ZN4xpum13deviceInGroupENSt7__cxx1112basic_stringIcSt11char_traitsIcESaIcEEESt10shared_ptrINS_9GroupUnitEE
libxpum.so.1:_ZN4xpum13get_card_listEPNS_8nrv_listEi
libxpum.so.1:_ZN4xpum13get_sdr_countEPNS_14ipmi_address_tERi
libxpum.so.1:_ZN4xpum13get_sn_numberEhhRNSt7__cxx1112basic_stringIcSt11char_traitsIcESaIcEEE
libxpum.so.1:_ZN4xpum13kernelDestroyEP19_ze_kernel_handle_t
libxpum.so.1:_ZN4xpum13moduleDestroyEP19_ze_module_handle_t
libxpum.so.1:_ZN4xpum13to_hex_stringB5cxx11Emi
libxpum.so.1:_ZN4xpum14AvgDataHandler10handleDataERSt10shared_ptrINS_10SharedDataEE
libxpum.so.1:_ZN4xpum14AvgDataHandler13getLatestDataERNSt7__cxx1112basic_stringIcSt11char_traitsIcESaIcEEE
libxpum.so.1:_ZN4xpum14AvgDataHandler6getAvgERNSt7__cxx1112basic_stringIcSt11char_traitsIcESaIcEEERiS8_S8_
libxpum.so.1:_ZN4xpum14AvgDataHandlerC1ENS_15MeasurementTypeERSt10shared_ptrINS_11PersistencyEE
libxpum.so.1:_ZN4xpum14AvgDataHandlerC2ENS_15MeasurementTypeERSt10shared_ptrINS_11PersistencyEE
libxpum.so.1:_ZN4xpum14AvgDataHandlerD0Ev
libxpum.so.1:_ZN4xpum14AvgDataHandlerD1Ev
libxpum.so.1:_ZN4xpum14AvgDataHandlerD2Ev
libxpum.so.1:_ZN4xpum14FwCodeDataMgmt13isUpgradingFwEv
libxpum.so.1:_ZN4xpum14FwCodeDataMgmt15flashFwCodeDataERNS_20FlashFwCodeDataParamE
libxpum.so.1:_ZN4xpum14FwCodeDataMgmt24getFlashFwCodeDataResultERNS_29GetFlashFwCodeDataResultParamE
libxpum.so.1:_ZN4xpum14FwCodeDataMgmt7isReadyEv
libxpum.so.1:_ZN4xpum14IpmiAmcManager15updateAmcFwListEv
libxpum.so.1:_ZN4xpum14IpmiAmcManager16flashAMCFirmwareERNS_21FlashAmcFirmwareParamE
libxpum.so.1:_ZN4xpum14IpmiAmcManager19getAMCSensorReadingERNS_24GetAmcSensorReadingParamE
libxpum.so.1:_ZN4xpum14IpmiAmcManager22getAmcFirmwareVersionsERNS_27GetAmcFirmwareVersionsParamE
libxpum.so.1:_ZN4xpum14IpmiAmcManager23getAMCSlotSerialNumbersERNS_28GetAmcSlotSerialNumbersParamE
libxpum.so.1:_ZN4xpum14IpmiAmcManager25getAMCFirmwareFlashResultERNS_30GetAmcFirmwareFlashResultParamE
libxpum.so.1:_ZN4xpum14IpmiAmcManager29getAMCSerialNumberByRiserSlotEhhRNSt7__cxx1112basic_stringIcSt11char_traitsIcESaIcEEE
libxpum.so.1:_ZN4xpum14IpmiAmcManager4initERNS_9InitParamE
libxpum.so.1:_ZN4xpum14IpmiAmcManager7preInitEv
libxpum.so.1:_ZN4xpum14MonitorManager18createMonitorTasksENS_15MeasurementTypeE
libxpum.so.1:_ZN4xpum14MonitorManager25resetMetricTasksFrequencyEv
libxpum.so.1:_ZN4xpum14MonitorManager29initOneTimeMetricMonitorTasksENS_15MeasurementTypeE
libxpum.so.1:_ZN4xpum14MonitorManager4initEv
libxpum.so.1:_ZN4xpum14MonitorManager5closeEv
libxpum.so.1:_ZN4xpum14MonitorManagerC1ERSt10shared_ptrINS_22DeviceManagerInterfaceEERS1_INS_18DataLogicInterfaceEE
libxpum.so.1:_ZN4xpum14MonitorManagerC2ERSt10shared_ptrINS_22DeviceManagerInterfaceEERS1_INS_18DataLogicInterfaceEE
libxpum.so.1:_ZN4xpum14MonitorManagerD0Ev
libxpum.so.1:_ZN4xpum14MonitorManagerD1Ev
libxpum.so.1:_ZN4xpum14MonitorManagerD2Ev
libxpum.so.1:_ZN4xpum14contextDestroyEP20_ze_context_handle_t
libxpum.so.1:_ZN4xpum14device_process10getMemSizeEv
libxpum.so.1:_ZN4xpum14device_process12getProcessIdEv
libxpum.so.1:_ZN4xpum14device_process13getSharedSizeEv
libxpum.so.1:_ZN4xpum14device_process14getProcessNameB5cxx11Ev
libxpum.so.1:_ZN4xpum14device_process9getEngineEv
libxpum.so.1:_ZN4xpum14device_processC1EjmmjNSt7__cxx1112basic_stringIcSt11char_traitsIcESaIcEEE
libxpum.so.1:_ZN4xpum14device_processC2EjmmjNSt7__cxx1112basic_stringIcSt11char_traitsIcESaIcEEE
libxpum.so.1:_ZN4xpum14device_processD1Ev
libxpum.so.1:_ZN4xpum14device_processD2Ev
libxpum.so.1:_ZN4xpum14getPciSlotNameEPPcjS0_j
libxpum.so.1:_ZN4xpum14getRc6PathListB5cxx11EPNS_9GPUDeviceE
libxpum.so.1:_ZN4xpum14getScaledValueB5cxx11Emj
libxpum.so.1:_ZN4xpum14isATSMPlatformENSt7__cxx1112basic_stringIcSt11char_traitsIcESaIcEEE
libxpum.so.1:_ZN4xpum14readConfigFileENSt7__cxx1112basic_stringIcSt11char_traitsIcESaIcEEE
libxpum.so.1:_ZN4xpum14set_up_buffersERKP20_ze_context_handle_tSt6vectorIjSaIjEES4_IP19_ze_device_handle_tSaIS8_EERS4_IPvSaISB_EESE_RPciRm
libxpum.so.1:_ZN4xpum14xpumGetMetricsEiPNS_21xpum_device_metrics_tEPi
libxpum.so.1:_ZN4xpum15DumpRawDataTask10rescheduleEv
libxpum.so.1:_ZN4xpum15DumpRawDataTask10updateDataEv
libxpum.so.1:_ZN4xpum15DumpRawDataTask11writeHeaderEv
libxpum.so.1:_ZN4xpum15DumpRawDataTask11writeToFileENSt7__cxx1112basic_stringIcSt11char_traitsIcESaIcEEE
libxpum.so.1:_ZN4xpum15DumpRawDataTask12buildColumnsEv
libxpum.so.1:_ZN4xpum15DumpRawDataTask18fillTaskInfoBufferEPNS_25xpum_dump_raw_data_task_tE
libxpum.so.1:_ZN4xpum15DumpRawDataTask4stopEv
libxpum.so.1:_ZN4xpum15DumpRawDataTask5startEv
libxpum.so.1:_ZN4xpum15DumpRawDataTaskC1EiiiNSt7__cxx1112basic_stringIcSt11char_traitsIcESaIcEEESt10shared_ptrINS_19ScheduledThreadPoolEE
libxpum.so.1:_ZN4xpum15DumpRawDataTaskC2EiiiNSt7__cxx1112basic_stringIcSt11char_traitsIcESaIcEEESt10shared_ptrINS_19ScheduledThreadPoolEE
libxpum.so.1:_ZN4xpum15DumpRawDataTaskD1Ev
libxpum.so.1:_ZN4xpum15DumpRawDataTaskD2Ev
libxpum.so.1:_ZN4xpum15FirmwareManager13getAmcWarnMsgB5cxx11Ev
libxpum.so.1:_ZN4xpum15FirmwareManager13isUpgradingFwEv
libxpum.so.1:_ZN4xpum15FirmwareManager13runPscFwFlashEiPKcb
libxpum.so.1:_ZN4xpum15FirmwareManager14getGfxFwStatusEi
libxpum.so.1:_ZN4xpum15FirmwareManager14initAmcManagerEv
libxpum.so.1:_ZN4xpum15FirmwareManager14runFwDataFlashEiPKcb
libxpum.so.1:_ZN4xpum15FirmwareManager17preInitAmcManagerEv
libxpum.so.1:_ZN4xpum15FirmwareManager17runGscOnlyFwFlashEPKcb
libxpum.so.1:_ZN4xpum15FirmwareManager18runFwCodeDataFlashEiPKci
libxpum.so.1:_ZN4xpum15FirmwareManager19getAMCSensorReadingEPNS_21xpum_sensor_reading_tEPi
libxpum.so.1:_ZN4xpum15FirmwareManager19getPscFwFlashResultEiPNS_33xpum_firmware_flash_task_result_tE
libxpum.so.1:_ZN4xpum15FirmwareManager19runAMCFirmwareFlashEPKcNS_13AmcCredentialE
libxpum.so.1:_ZN4xpum15FirmwareManager19runGSCFirmwareFlashEiPKcbb
libxpum.so.1:_ZN4xpum15FirmwareManager20getFwDataFlashResultEiPNS_33xpum_firmware_flash_task_result_tEb
libxpum.so.1:_ZN4xpum15FirmwareManager21credentialCheckIfFailENS_13AmcCredentialERNSt7__cxx1112basic_stringIcSt11char_traitsIcESaIcEEE
libxpum.so.1:_ZN4xpum15FirmwareManager21runGscOnlyFwDataFlashEPKc
libxpum.so.1:_ZN4xpum15FirmwareManager22getAMCFirmwareVersionsERSt6vectorINSt7__cxx1112basic_stringIcSt11char_traitsIcESaIcEEESaIS7_EENS_13AmcCredentialE
libxpum.so.1:_ZN4xpum15FirmwareManager23getAMCSlotSerialNumbersENS_13AmcCredentialERSt6vectorINS_28SlotSerialNumberAndFwVersionESaIS3_EE
libxpum.so.1:_ZN4xpum15FirmwareManager23getGscOnlyFwFlashResultEPNS_33xpum_firmware_flash_task_result_tE
libxpum.so.1:_ZN4xpum15FirmwareManager24getFwCodeDataFlashResultEiPNS_33xpum_firmware_flash_task_result_tE
libxpum.so.1:_ZN4xpum15FirmwareManager24transGfxFwStatusToStringB5cxx11ENS_13gfx_fw_status11GfxFwStatusE
libxpum.so.1:_ZN4xpum15FirmwareManager25getAMCFirmwareFlashResultEPNS_33xpum_firmware_flash_task_result_tENS_13AmcCredentialE
libxpum.so.1:_ZN4xpum15FirmwareManager25getGSCFirmwareFlashResultEiPNS_33xpum_firmware_flash_task_result_tEb
libxpum.so.1:_ZN4xpum15FirmwareManager27atsmHwConfigCompatibleCheckENSt7__cxx1112basic_stringIcSt11char_traitsIcESaIcEEERSt6vectorIcS5_E
libxpum.so.1:_ZN4xpum15FirmwareManager27getGscOnlyFwDataFlashResultEPNS_33xpum_firmware_flash_task_result_tE
libxpum.so.1:_ZN4xpum15FirmwareManager30getAMCSerialNumbersByRiserSlotEhhRNSt7__cxx1112basic_stringIcSt11char_traitsIcESaIcEEE
libxpum.so.1:_ZN4xpum15FirmwareManager31isPVCFwImageAndDeviceCompatibleENSt7__cxx1112basic_stringIcSt11char_traitsIcESaIcEEERSt6vectorIcS5_E
libxpum.so.1:_ZN4xpum15FirmwareManager4initEv
libxpum.so.1:_ZN4xpum15MeasurementData10getDataAvgEm
libxpum.so.1:_ZN4xpum15MeasurementData10getDataCurEm
libxpum.so.1:_ZN4xpum15MeasurementData10getDataMaxEm
libxpum.so.1:_ZN4xpum15MeasurementData10getDataMinEm
libxpum.so.1:_ZN4xpum15MeasurementData10setDataAvgEmm
libxpum.so.1:_ZN4xpum15MeasurementData10setDataCurEmm
libxpum.so.1:_ZN4xpum15MeasurementData10setDataMaxEmm
libxpum.so.1:_ZN4xpum15MeasurementData10setDataMinEmm
libxpum.so.1:_ZN4xpum15MeasurementData15addExtendedDataEmNS_23ExtendedMeasurementDataE
libxpum.so.1:_ZN4xpum15MeasurementData16getExtendedDatasEv
libxpum.so.1:_ZN4xpum15MeasurementData16hasSubdeviceDataEj
libxpum.so.1:_ZN4xpum15MeasurementData17getSubdeviceDatasEv
libxpum.so.1:_ZN4xpum15MeasurementData19getSubdeviceDataAvgEj
libxpum.so.1:_ZN4xpum15MeasurementData19getSubdeviceDataMaxEj
libxpum.so.1:_ZN4xpum15MeasurementData19getSubdeviceDataMinEj
libxpum.so.1:_ZN4xpum15MeasurementData19getSubdeviceRawDataEj
libxpum.so.1:_ZN4xpum15MeasurementData19setSubdeviceDataAvgEjm
libxpum.so.1:_ZN4xpum15MeasurementData19setSubdeviceDataMaxEjm
libxpum.so.1:_ZN4xpum15MeasurementData19setSubdeviceDataMinEjm
libxpum.so.1:_ZN4xpum15MeasurementData19setSubdeviceRawDataEjm
libxpum.so.1:_ZN4xpum15MeasurementData20getSubdeviceDataSizeEv
libxpum.so.1:_ZN4xpum15MeasurementData20getSubdeviceRawDatasEv
libxpum.so.1:_ZN4xpum15MeasurementData21clearSubdeviceRawdataEj
libxpum.so.1:_ZN4xpum15MeasurementData23getSubdeviceDataCurrentEj
libxpum.so.1:_ZN4xpum15MeasurementData23setSubdeviceDataCurrentEjm
libxpum.so.1:_ZN4xpum15MeasurementData24addSingleMeasurementDataEmbj
libxpum.so.1:_ZN4xpum15MeasurementData25clearSubdeviceDataCurrentEj
libxpum.so.1:_ZN4xpum15MeasurementData26setSubdeviceAdditionalDataEjNS_15MeasurementTypeEmibm
libxpum.so.1:_ZN4xpum15MeasurementData27getSubdeviceAdditionalDatasEv
libxpum.so.1:_ZN4xpum15MeasurementData28clearSubdeviceAdditionalDataEv
libxpum.so.1:_ZN4xpum15MeasurementData28getSubdeviceDataRawTimestampEj
libxpum.so.1:_ZN4xpum15MeasurementData28setSubdeviceDataRawTimestampEjm
libxpum.so.1:_ZN4xpum15MeasurementData31getSubdeviceAdditionalDataTypesEv
libxpum.so.1:_ZN4xpum15MeasurementData33clearSubdeviceAdditionalDataTypesEv
libxpum.so.1:_ZN4xpum15MeasurementData33insertSubdeviceAdditionalDataTypeENS_15MeasurementTypeE
libxpum.so.1:_ZN4xpum15MeasurementData34getSubdeviceAdditionalDataTypeSizeEv
libxpum.so.1:_ZN4xpum15PrecheckManager20getPrecheckErrorListEPNS_21xpum_precheck_error_tEPi
libxpum.so.1:_ZN4xpum15PrecheckManager8precheckEPNS_30xpum_precheck_component_info_tEPiNS_21xpum_precheck_optionsE
libxpum.so.1:_ZN4xpum15SchedulingQueue5closeEv
libxpum.so.1:_ZN4xpum15SchedulingQueue7dequeueEv
libxpum.so.1:_ZN4xpum15SchedulingQueue7enqueueESt10shared_ptrINS_23ScheduledThreadPoolTaskEE
libxpum.so.1:_ZN4xpum15changeOrAddInfoERSt6vectorINS_21xpum_xelink_topo_infoESaIS1_EERS1_R21_zes_fabric_port_id_tS7_bb
libxpum.so.1:_ZN4xpum15getDeviceRegionENSt7__cxx1112basic_stringIcSt11char_traitsIcESaIcEEERS5_
libxpum.so.1:_ZN4xpum15memoryAllocHostERKP20_ze_context_handle_tmmPPv
libxpum.so.1:_ZN4xpum15search_by_regexENSt7__cxx1112basic_stringIcSt11char_traitsIcESaIcEEENS0_11basic_regexIcNS0_12regex_traitsIcEEEE
libxpum.so.1:_ZN4xpum16StatsDataHandler10handleDataERSt10shared_ptrINS_10SharedDataEE
libxpum.so.1:_ZN4xpum16StatsDataHandler15resetStatisticsERNSt7__cxx1112basic_stringIcSt11char_traitsIcESaIcEEEm
libxpum.so.1:_ZN4xpum16StatsDataHandler16updateStatisticsERSt10shared_ptrINS_10SharedDataEE
libxpum.so.1:_ZN4xpum16StatsDataHandler19getLatestStatisticsERNSt7__cxx1112basic_stringIcSt11char_traitsIcESaIcEEEm
libxpum.so.1:_ZN4xpum16StatsDataHandlerC1ENS_15MeasurementTypeERSt10shared_ptrINS_11PersistencyEE
libxpum.so.1:_ZN4xpum16StatsDataHandlerC2ENS_15MeasurementTypeERSt10shared_ptrINS_11PersistencyEE
libxpum.so.1:_ZN4xpum16StatsDataHandlerD0Ev
libxpum.so.1:_ZN4xpum16StatsDataHandlerD1Ev
libxpum.so.1:_ZN4xpum16StatsDataHandlerD2Ev
libxpum.so.1:_ZN4xpum16check_pci_deviceEPKNS_13pci_address_tE
libxpum.so.1:_ZN4xpum16commandListCloseEP25_ze_command_list_handle_t
libxpum.so.1:_ZN4xpum16commandListResetEP25_ze_command_list_handle_t
libxpum.so.1:_ZN4xpum16eccStateToStringB5cxx11ENS_16xpum_ecc_state_tE
libxpum.so.1:_ZN4xpum16getUpdateServiceENSt7__cxx1112basic_stringIcSt11char_traitsIcESaIcEEES5_RN8nlohmann10basic_jsonISt3mapSt6vectorS5_blmdSaNS6_14adl_serializerES9_IhSaIhEEEERS5_
libxpum.so.1:_ZN4xpum16get_product_nameEh
libxpum.so.1:_ZN4xpum16readImageContentEPKc
libxpum.so.1:_ZN4xpum16reset_pci_deviceEPKNS_13pci_address_tE
libxpum.so.1:_ZN4xpum16validateDeviceIdEi
libxpum.so.1:_ZN4xpum17DiagnosticManager11checkStressEiPNS_21xpum_diag_task_info_tEPi
libxpum.so.1:_ZN4xpum17DiagnosticManager11roundDoubleB5cxx11Edi
libxpum.so.1:_ZN4xpum17DiagnosticManager13calculateGbpsEee
libxpum.so.1:_ZN4xpum17DiagnosticManager13countDevEntryERKNSt7__cxx1112basic_stringIcSt11char_traitsIcESaIcEEE
libxpum.so.1:_ZN4xpum17DiagnosticManager13setWorkgroupsER31_ze_device_compute_properties_tmPNS_12ZeWorkGroupsE
libxpum.so.1:_ZN4xpum17DiagnosticManager13setupFunctionERP19_ze_module_handle_tRP19_ze_kernel_handle_tPKcPvS9_
libxpum.so.1:_ZN4xpum17DiagnosticManager13updateMessageEPcNSt7__cxx1112basic_stringIcSt11char_traitsIcESaIcEEE
libxpum.so.1:_ZN4xpum17DiagnosticManager14loadBinaryFileERKNSt7__cxx1112basic_stringIcSt11char_traitsIcESaIcEEE
libxpum.so.1:_ZN4xpum17DiagnosticManager16doDiagnosticCoreEi
libxpum.so.1:_ZN4xpum17DiagnosticManager16getCommandResultENSt7__cxx1112basic_stringIcSt11char_traitsIcESaIcEEERi
libxpum.so.1:_ZN4xpum17DiagnosticManager16initDiagTaskInfoERSt10shared_ptrINS_21xpum_diag_task_info_tEEiNS_20xpum_diag_level_enumEiPNS_24xpum_diag_task_type_enumEb
libxpum.so.1:_ZN4xpum17DiagnosticManager16stressThreadFuncEiRKP19_ze_device_handle_tRKP19_ze_driver_handle_tSt10shared_ptrINS_21xpum_diag_task_info_tEEPSt5mutexPSt3mapIiS9_ISt6vectorIdSaIdEEESt4lessIiESaISt4pairIKiSI_EEE
libxpum.so.1:_ZN4xpum17DiagnosticManager18runDiagnosticsCoreEiNS_20xpum_diag_level_enumEPNS_24xpum_diag_task_type_enumEi
libxpum.so.1:_ZN4xpum17DiagnosticManager19runLevelDiagnosticsEiNS_20xpum_diag_level_enumE
libxpum.so.1:_ZN4xpum17DiagnosticManager20getDiagnosticsResultEiPNS_21xpum_diag_task_info_tE
libxpum.so.1:_ZN4xpum17DiagnosticManager20isDiagnosticsRunningEi
libxpum.so.1:_ZN4xpum17DiagnosticManager21doDiagnosticExclusiveERKP19_ze_device_handle_tRSt3mapIiSt6vectorISt4pairINSt7__cxx1112basic_stringIcSt11char_traitsIcESaIcEEESD_ESaISE_EESt4lessIiESaIS7_IKiSG_EEESt10shared_ptrINS_21xpum_diag_task_info_tEE
libxpum.so.1:_ZN4xpum17DiagnosticManager21doDiagnosticLibrariesESt6vectorISt10shared_ptrINS_6DeviceEESaIS4_EES2_INS_21xpum_diag_task_info_tEE
libxpum.so.1:_ZN4xpum17DiagnosticManager21isLevelDiagnosticTypeENS_24xpum_diag_task_type_enumE
libxpum.so.1:_ZN4xpum17DiagnosticManager22doDiagnosticMediaCodecERKP19_ze_device_handle_tSt10shared_ptrINS_21xpum_diag_task_info_tEERSt3mapIiSt6vectorINS_31xpum_diag_media_codec_metrics_tESaISA_EESt4lessIiESaISt4pairIKiSC_EEEb
libxpum.so.1:_ZN4xpum17DiagnosticManager22doDiagnosticPermissionEiSt10shared_ptrINS_21xpum_diag_task_info_tEE
libxpum.so.1:_ZN4xpum17DiagnosticManager22showResultsHost2deviceEmee
libxpum.so.1:_ZN4xpum17DiagnosticManager23doDiagnosticIntegrationERKP19_ze_device_handle_tS4_RKP19_ze_driver_handle_tRSt3mapIiNS_9PerfDatasESt4lessIiESaISt4pairIKiSA_EEESt10shared_ptrINS_21xpum_diag_task_info_tEE
libxpum.so.1:_ZN4xpum17DiagnosticManager23doDiagnosticMemoryErrorERKP19_ze_device_handle_tS4_RKP19_ze_driver_handle_tSt10shared_ptrINS_21xpum_diag_task_info_tEE
libxpum.so.1:_ZN4xpum17DiagnosticManager24getMediaCodecMetricsDataEiNSt7__cxx1112basic_stringIcSt11char_traitsIcESaIcEEEbb
libxpum.so.1:_ZN4xpum17DiagnosticManager25calculateBandwidthLatencyEeeReS1_m
libxpum.so.1:_ZN4xpum17DiagnosticManager26doDiagnosticHardwareSysmanERKP19_ze_device_handle_tSt10shared_ptrINS_21xpum_diag_task_info_tEE
libxpum.so.1:_ZN4xpum17DiagnosticManager27doDiagnosticExceptionHandleENS_24xpum_diag_task_type_enumENSt7__cxx1112basic_stringIcSt11char_traitsIcESaIcEEESt10shared_ptrINS_21xpum_diag_task_info_tEE
libxpum.so.1:_ZN4xpum17DiagnosticManager27doDiagnosticPeformancePowerERKP19_ze_device_handle_tS4_RKP19_ze_driver_handle_tRSt3mapIiNS_9PerfDatasESt4lessIiESaISt4pairIKiSA_EEESt10shared_ptrINS_21xpum_diag_task_info_tEE
libxpum.so.1:_ZN4xpum17DiagnosticManager28dispatchKernelsForMemoryTestEP19_ze_device_handle_tP19_ze_module_handle_tSt6vectorIPhSaIS6_EES8_RS5_IS5_IhSaIhEESaISA_EERKS5_INSt7__cxx1112basic_stringIcSt11char_traitsIcESaIcEEESaISJ_EEmmP20_ze_context_handle_t
libxpum.so.1:_ZN4xpum17DiagnosticManager28doDiagnosticXeLinkThroughputERKP19_ze_device_handle_tS4_RKP19_ze_driver_handle_tSt10shared_ptrINS_21xpum_diag_task_info_tEESt6vectorIS9_INS_6DeviceEESaISE_EERSt3mapIiNS_9PerfDatasESt4lessIiESaISt4pairIKiSI_EEERSH_IiSC_INS_30xpum_diag_xe_link_throughput_tESaISR_EESK_SaISL_ISM_ST_EEE
libxpum.so.1:_ZN4xpum17DiagnosticManager29getXeLinkPortTransmitCountersERKP19_ze_device_handle_tiRSt3mapISt6vectorIiSaIiEEmSt4lessIS8_ESaISt4pairIKS8_mEEERd
libxpum.so.1:_ZN4xpum17DiagnosticManager30getDiagnosticsMediaCodecResultEiPNS_31xpum_diag_media_codec_metrics_tEPi
libxpum.so.1:_ZN4xpum17DiagnosticManager30runMultipleSpecificDiagnosticsEiPNS_24xpum_diag_task_type_enumEi
libxpum.so.1:_ZN4xpum17DiagnosticManager32combineMultiDeviceDiagnosticInfoEPNS_21xpum_diag_task_info_tE
libxpum.so.1:_ZN4xpum17DiagnosticManager32doDiagnosticEnvironmentVariablesESt10shared_ptrINS_21xpum_diag_task_info_tEE
libxpum.so.1:_ZN4xpum17DiagnosticManager33doDiagnosticPeformanceComputationERKP19_ze_device_handle_tS4_RKP19_ze_driver_handle_tRSt3mapIiNS_9PerfDatasESt4lessIiESaISt4pairIKiSA_EEESt10shared_ptrINS_21xpum_diag_task_info_tEEb
libxpum.so.1:_ZN4xpum17DiagnosticManager34getDeviceAvailableCopyEngingGroupsERKP19_ze_device_handle_tb
libxpum.so.1:_ZN4xpum17DiagnosticManager36doDiagnosticXeLinkAllToAllThroughputERKP19_ze_driver_handle_tSt6vectorISt10shared_ptrINS_6DeviceEESaIS8_EERSt3mapIiS6_INS_21xpum_diag_task_info_tEESt4lessIiESaISt4pairIKiSD_EEERSB_IiNS_9PerfDatasESF_SaISG_ISH_SM_EEE
libxpum.so.1:_ZN4xpum17DiagnosticManager36getDiagnosticsXeLinkThroughputResultEiPNS_30xpum_diag_xe_link_throughput_tEPi
libxpum.so.1:_ZN4xpum17DiagnosticManager37doDiagnosticPeformanceMemoryBandwidthERKP19_ze_device_handle_tS4_RKP19_ze_driver_handle_tRSt3mapIiNS_9PerfDatasESt4lessIiESaISt4pairIKiSA_EEESt10shared_ptrINS_21xpum_diag_task_info_tEE
libxpum.so.1:_ZN4xpum17DiagnosticManager38doDiagnosticPeformanceMemoryAllocationERKP19_ze_device_handle_tS4_RKP19_ze_driver_handle_tSt10shared_ptrINS_21xpum_diag_task_info_tEE
libxpum.so.1:_ZN4xpum17DiagnosticManager42copyMemoryDataAndCalculateXeLinkThroughputERKP19_ze_driver_handle_tSt6vectorISt5tupleIJP19_ze_device_handle_tS8_iS8_S8_iEESaIS9_EERSt3mapIiNS_9PerfDatasESt4lessIiESaISt4pairIKiSD_EEERSC_IiS5_INS_30xpum_diag_xe_link_throughput_tESaISM_EESF_SaISG_ISH_SO_EEEi
libxpum.so.1:_ZN4xpum17DiagnosticManager4initEv
libxpum.so.1:_ZN4xpum17DiagnosticManager5closeEv
libxpum.so.1:_ZN4xpum17DiagnosticManager9runKernelEP26_ze_command_queue_handle_tP25_ze_command_list_handle_tRP19_ze_kernel_handle_tRNS_12ZeWorkGroupsENS_24xpum_diag_task_type_enumEb
libxpum.so.1:_ZN4xpum17DiagnosticManager9runStressEij
libxpum.so.1:_ZN4xpum17DiagnosticManagerC1ERSt10shared_ptrINS_22DeviceManagerInterfaceEERS1_INS_18DataLogicInterfaceEERS1_INS_15FirmwareManagerEE
libxpum.so.1:_ZN4xpum17DiagnosticManagerC2ERSt10shared_ptrINS_22DeviceManagerInterfaceEERS1_INS_18DataLogicInterfaceEERS1_INS_15FirmwareManagerEE
libxpum.so.1:_ZN4xpum17DiagnosticManagerD0Ev
libxpum.so.1:_ZN4xpum17DiagnosticManagerD1Ev
libxpum.so.1:_ZN4xpum17DiagnosticManagerD2Ev
libxpum.so.1:_ZN4xpum17PerformanceFactorC1Ebjjd
libxpum.so.1:_ZN4xpum17PerformanceFactorC2Ebjjd
libxpum.so.1:_ZN4xpum17PerformanceFactorD0Ev
libxpum.so.1:_ZN4xpum17PerformanceFactorD1Ev
libxpum.so.1:_ZN4xpum17PerformanceFactorD2Ev
libxpum.so.1:_ZN4xpum17RedfishAmcManager14readConfigFileEv
libxpum.so.1:_ZN4xpum17RedfishAmcManager8instanceEv
libxpum.so.1:_ZN4xpum17addPCIePropertiesERP19_ze_device_handle_tSt10shared_ptrINS_9GPUDeviceEE
libxpum.so.1:_ZN4xpum17callIgscMemoryEccENSt7__cxx1112basic_stringIcSt11char_traitsIcESaIcEEEbhPhS6_
libxpum.so.1:_ZN4xpum17commandListCreateERKP20_ze_context_handle_tP19_ze_device_handle_tjPP25_ze_command_list_handle_tj
libxpum.so.1:_ZN4xpum17compare_with_fileEPKcPKhm
libxpum.so.1:_ZN4xpum17getRedfishAmcWarnB5cxx11Ev
libxpum.so.1:_ZN4xpum17getXelinkTransferERSt6vectorINS_21xpum_xelink_topo_infoESaIS1_EERS1_
libxpum.so.1:_ZN4xpum17get_fru_data_sizeEPNS_14ipmi_address_tE
libxpum.so.1:_ZN4xpum17memoryAllocSharedERKP20_ze_context_handle_tP19_ze_device_handle_tmmPPv
libxpum.so.1:_ZN4xpum17setXelinkTransferERSt6vectorINS_21xpum_xelink_topo_infoESaIS1_EERS1_
libxpum.so.1:_ZN4xpum18CounterDataHandler10handleDataERSt10shared_ptrINS_10SharedDataEE
libxpum.so.1:_ZN4xpum18CounterDataHandler24counterOverflowDetectionERSt10shared_ptrINS_10SharedDataEE
libxpum.so.1:_ZN4xpum18CounterDataHandlerC1ENS_15MeasurementTypeERSt10shared_ptrINS_11PersistencyEE
libxpum.so.1:_ZN4xpum18CounterDataHandlerC2ENS_15MeasurementTypeERSt10shared_ptrINS_11PersistencyEE
libxpum.so.1:_ZN4xpum18CounterDataHandlerD0Ev
libxpum.so.1:_ZN4xpum18CounterDataHandlerD1Ev
libxpum.so.1:_ZN4xpum18CounterDataHandlerD2Ev
libxpum.so.1:_ZN4xpum18DataHandlerManager13getLatestDataENS_15MeasurementTypeERNSt7__cxx1112basic_stringIcSt11char_traitsIcESaIcEEE
libxpum.so.1:_ZN4xpum18DataHandlerManager17getStatsTimestampEjj
libxpum.so.1:_ZN4xpum18DataHandlerManager19getLatestStatisticsENS_15MeasurementTypeERNSt7__cxx1112basic_stringIcSt11char_traitsIcESaIcEEEm
libxpum.so.1:_ZN4xpum18DataHandlerManager20storeMeasurementDataENS_15MeasurementTypeExSt10shared_ptrISt3mapINSt7__cxx1112basic_stringIcSt11char_traitsIcESaIcEEES2_INS_15MeasurementDataEESt4lessIS9_ESaISt4pairIKS9_SB_EEEE
libxpum.so.1:_ZN4xpum18DataHandlerManager20updateStatsTimestampEjj
libxpum.so.1:_ZN4xpum18DataHandlerManager23getEngineStatsTimestampEjj
libxpum.so.1:_ZN4xpum18DataHandlerManager23getFabricStatsTimestampEjj
libxpum.so.1:_ZN4xpum18DataHandlerManager26updateEngineStatsTimestampEjj
libxpum.so.1:_ZN4xpum18DataHandlerManager26updateFabricStatsTimestampEjj
libxpum.so.1:_ZN4xpum18DataHandlerManager4initEv
libxpum.so.1:_ZN4xpum18DataHandlerManager5closeEv
libxpum.so.1:_ZN4xpum18DataHandlerManagerC1ERSt10shared_ptrINS_11PersistencyEE
libxpum.so.1:_ZN4xpum18DataHandlerManagerC2ERSt10shared_ptrINS_11PersistencyEE
libxpum.so.1:_ZN4xpum18DataHandlerManagerD0Ev
libxpum.so.1:_ZN4xpum18DataHandlerManagerD1Ev
libxpum.so.1:_ZN4xpum18DataHandlerManagerD2Ev
libxpum.so.1:_ZN4xpum18DumpRawDataManager18resetDumpFrequencyEv
libxpum.so.1:_ZN4xpum18DumpRawDataManager19stopDumpRawDataTaskEiPNS_25xpum_dump_raw_data_task_tE
libxpum.so.1:_ZN4xpum18DumpRawDataManager20listDumpRawDataTasksEPNS_25xpum_dump_raw_data_task_tEPi
libxpum.so.1:_ZN4xpum18DumpRawDataManager20startDumpRawDataTaskEiiPKNS_19xpum_dump_type_enumEiPKcNS_27xpum_dump_raw_data_option_tEPNS_25xpum_dump_raw_data_task_tE
libxpum.so.1:_ZN4xpum18DumpRawDataManager4initEv
libxpum.so.1:_ZN4xpum18DumpRawDataManagerC1Ev
libxpum.so.1:_ZN4xpum18DumpRawDataManagerC2Ev
libxpum.so.1:_ZN4xpum18DumpRawDataManagerD1Ev
libxpum.so.1:_ZN4xpum18DumpRawDataManagerD2Ev
libxpum.so.1:_ZN4xpum18PerfMetricsHandler10handleDataERSt10shared_ptrINS_10SharedDataEE
libxpum.so.1:_ZN4xpum18PerfMetricsHandler13calculateDataERSt10shared_ptrINS_10SharedDataEE
libxpum.so.1:_ZN4xpum18PerfMetricsHandlerC1ENS_15MeasurementTypeERSt10shared_ptrINS_11PersistencyEE
libxpum.so.1:_ZN4xpum18PerfMetricsHandlerC2ENS_15MeasurementTypeERSt10shared_ptrINS_11PersistencyEE
libxpum.so.1:_ZN4xpum18PerfMetricsHandlerD0Ev
libxpum.so.1:_ZN4xpum18PerfMetricsHandlerD1Ev
libxpum.so.1:_ZN4xpum18PerfMetricsHandlerD2Ev
libxpum.so.1:_ZN4xpum18add_two_hex_stringENSt7__cxx1112basic_stringIcSt11char_traitsIcESaIcEEES5_
libxpum.so.1:_ZN4xpum18calcaulateVarianceERKSt6vectorIdSaIdEE
libxpum.so.1:_ZN4xpum18commandListDestroyEP25_ze_command_list_handle_t
libxpum.so.1:_ZN4xpum18commandQueueCreateERKP20_ze_context_handle_tP19_ze_device_handle_tjjPP26_ze_command_queue_handle_tj
libxpum.so.1:_ZN4xpum18convertStandbyDataERNS_7StandbyEPNS_19xpum_standby_data_tE
libxpum.so.1:_ZN4xpum18getDmiDecodeOutputB5cxx11Ev
libxpum.so.1:_ZN4xpum18getIpmiErrorStringB5cxx11Ei
libxpum.so.1:_ZN4xpum18get_sensor_readingERNS_8nrv_cardERSt6vectorINS_21xpum_sensor_reading_tESaIS3_EE
libxpum.so.1:_ZN4xpum18initialize_buffersERKP20_ze_context_handle_tSt6vectorIjSaIjEES4_INS_26DeviceCmdQueueAndListPairsESaIS7_EES4_IPvSaISA_EEPcm
libxpum.so.1:_ZN4xpum18isIommuDeviceFoundEv
libxpum.so.1:_ZN4xpum18kernelSetGroupSizeEP19_ze_kernel_handle_tjjj
libxpum.so.1:_ZN4xpum18readFileSingleLineERKNSt7__cxx1112basic_stringIcSt11char_traitsIcESaIcEEE
libxpum.so.1:_ZN4xpum18set_bsmc_interfaceEPc
libxpum.so.1:_ZN4xpum18teeWriteAndReadMsgEP10_TEEHANDLEPvmS2_mmmRm
libxpum.so.1:_ZN4xpum18toSetMeiDevicePathESt10shared_ptrINS_9GPUDeviceEESt6vectorINS_19pci_addr_mei_deviceESaIS4_EE
libxpum.so.1:_ZN4xpum18xpumGetEngineCountEiiNS_21xpum_engine_type_enumEPj
libxpum.so.1:_ZN4xpum19PerfMeasurementData18getPerfMetricDatasEv
libxpum.so.1:_ZN4xpum19PerfMeasurementData7addDataERSt10shared_ptrINS_22PerfMetricDeviceData_tEE
libxpum.so.1:_ZN4xpum19PerfMeasurementDataC1Ev
libxpum.so.1:_ZN4xpum19PerfMeasurementDataC2Ev
libxpum.so.1:_ZN4xpum19PerfMeasurementDataD1Ev
libxpum.so.1:_ZN4xpum19PerfMeasurementDataD2Ev
libxpum.so.1:_ZN4xpum19ScheduledThreadPool4initERj
libxpum.so.1:_ZN4xpum19ScheduledThreadPool5closeEv
libxpum.so.1:_ZN4xpum19ScheduledThreadPoolC1Ej
libxpum.so.1:_ZN4xpum19ScheduledThreadPoolC2Ej
libxpum.so.1:_ZN4xpum19ScheduledThreadPoolD1Ev
libxpum.so.1:_ZN4xpum19ScheduledThreadPoolD2Ev
libxpum.so.1:_ZN4xpum19bsmc_interface_initENS_16bsmc_interface_tE
libxpum.so.1:_ZN4xpum19checkDowngradedPCIeB5cxx11ERKP19_ze_device_handle_t
libxpum.so.1:_ZN4xpum19commandQueueDestroyEP26_ze_command_queue_handle_t
libxpum.so.1:_ZN4xpum19convertScheduleDataERNS_9SchedulerEPNS_21xpum_scheduler_data_tE
libxpum.so.1:_ZN4xpum19device_util_by_proc10getMemSizeEv
libxpum.so.1:_ZN4xpum19device_util_by_proc10setMemSizeEm
libxpum.so.1:_ZN4xpum19device_util_by_proc11getDeviceIdEv
libxpum.so.1:_ZN4xpum19device_util_by_proc11setDeviceIdEj
libxpum.so.1:_ZN4xpum19device_util_by_proc12getProcessIdEv
libxpum.so.1:_ZN4xpum19device_util_by_proc14getProcessNameB5cxx11Ev
libxpum.so.1:_ZN4xpum19device_util_by_proc14setProcessNameENSt7__cxx1112basic_stringIcSt11char_traitsIcESaIcEEE
libxpum.so.1:_ZN4xpum19device_util_by_proc16getSharedMemSizeEv
libxpum.so.1:_ZN4xpum19device_util_by_proc16setSharedMemSizeEm
libxpum.so.1:_ZN4xpum19device_util_by_proc17getCopyEngineUtilEv
libxpum.so.1:_ZN4xpum19device_util_by_proc19getMediaEnigineUtilEv
libxpum.so.1:_ZN4xpum19device_util_by_proc20getComputeEngineUtilEv
libxpum.so.1:_ZN4xpum19device_util_by_proc22getRenderingEngineUtilEv
libxpum.so.1:_ZN4xpum19device_util_by_proc23getMediaEnhancementUtilEv
libxpum.so.1:_ZN4xpum19device_util_by_proc5mergeEPS0_
libxpum.so.1:_ZN4xpum19device_util_by_proc6setvalEPS0_
libxpum.so.1:_ZN4xpum19device_util_by_procC1Ej
libxpum.so.1:_ZN4xpum19device_util_by_procC2Ej
libxpum.so.1:_ZN4xpum19device_util_by_procD1Ev
libxpum.so.1:_ZN4xpum19device_util_by_procD2Ev
libxpum.so.1:_ZN4xpum19get_pci_device_listEPNS_13pci_address_tEiPi
libxpum.so.1:_ZN4xpum19readTemperatureTaskERSt6atomicIbERmRKP19_ze_device_handle_t
libxpum.so.1:_ZN4xpum20HEPRedfishAmcManager16flashAMCFirmwareERNS_21FlashAmcFirmwareParamE
libxpum.so.1:_ZN4xpum20HEPRedfishAmcManager17getRedfishAmcWarnB5cxx11Ev
libxpum.so.1:_ZN4xpum20HEPRedfishAmcManager19getAMCSensorReadingERNS_24GetAmcSensorReadingParamE
libxpum.so.1:_ZN4xpum20HEPRedfishAmcManager22getAmcFirmwareVersionsERNS_27GetAmcFirmwareVersionsParamE
libxpum.so.1:_ZN4xpum20HEPRedfishAmcManager23getAMCSlotSerialNumbersERNS_28GetAmcSlotSerialNumbersParamE
libxpum.so.1:_ZN4xpum20HEPRedfishAmcManager24redfishHostInterfaceInitEv
libxpum.so.1:_ZN4xpum20HEPRedfishAmcManager25getAMCFirmwareFlashResultERNS_30GetAmcFirmwareFlashResultParamE
libxpum.so.1:_ZN4xpum20HEPRedfishAmcManager28activeInterfaceAndConfigDHCPEv
libxpum.so.1:_ZN4xpum20HEPRedfishAmcManager4initERNS_9InitParamE
libxpum.so.1:_ZN4xpum20HEPRedfishAmcManager7preInitEv
libxpum.so.1:_ZN4xpum20SMCRedfishAmcManager16flashAMCFirmwareERNS_21FlashAmcFirmwareParamE
libxpum.so.1:_ZN4xpum20SMCRedfishAmcManager17bindIpToInterfaceEv
libxpum.so.1:_ZN4xpum20SMCRedfishAmcManager17getRedfishAmcWarnB5cxx11Ev
libxpum.so.1:_ZN4xpum20SMCRedfishAmcManager19getAMCSensorReadingERNS_24GetAmcSensorReadingParamE
libxpum.so.1:_ZN4xpum20SMCRedfishAmcManager22getAmcFirmwareVersionsERNS_27GetAmcFirmwareVersionsParamE
libxpum.so.1:_ZN4xpum20SMCRedfishAmcManager23getAMCSlotSerialNumbersERNS_28GetAmcSlotSerialNumbersParamE
libxpum.so.1:_ZN4xpum20SMCRedfishAmcManager24redfishHostInterfaceInitEv
libxpum.so.1:_ZN4xpum20SMCRedfishAmcManager25getAMCFirmwareFlashResultERNS_30GetAmcFirmwareFlashResultParamE
libxpum.so.1:_ZN4xpum20SMCRedfishAmcManager4initERNS_9InitParamE
libxpum.so.1:_ZN4xpum20SMCRedfishAmcManager7preInitEv
libxpum.so.1:_ZN4xpum20access_device_memoryENSt7__cxx1112basic_stringIcSt11char_traitsIcESaIcEEEm
libxpum.so.1:_ZN4xpum20checkMemoryMRCStatusERSt6vectorINSt7__cxx1112basic_stringIcSt11char_traitsIcESaIcEEESaIS6_EE
libxpum.so.1:_ZN4xpum20cmd_test_update_syncEv
libxpum.so.1:_ZN4xpum20convertFrequencyDataERNS_9FrequencyEPNS_22xpum_frequency_range_tE
libxpum.so.1:_ZN4xpum20getMaxPowerFromSysfsENSt7__cxx1112basic_stringIcSt11char_traitsIcESaIcEEENS_5PowerE
libxpum.so.1:_ZN4xpum20zeResultErrorCodeStrB5cxx11E12_ze_result_t
libxpum.so.1:_ZN4xpum21DELLRedfishAmcManager16flashAMCFirmwareERNS_21FlashAmcFirmwareParamE
libxpum.so.1:_ZN4xpum21DELLRedfishAmcManager17getRedfishAmcWarnB5cxx11Ev
libxpum.so.1:_ZN4xpum21DELLRedfishAmcManager19getAMCSensorReadingERNS_24GetAmcSensorReadingParamE
libxpum.so.1:_ZN4xpum21DELLRedfishAmcManager22getAmcFirmwareVersionsERNS_27GetAmcFirmwareVersionsParamE
libxpum.so.1:_ZN4xpum21DELLRedfishAmcManager23getAMCSlotSerialNumbersERNS_28GetAmcSlotSerialNumbersParamE
libxpum.so.1:_ZN4xpum21DELLRedfishAmcManager24redfishHostInterfaceInitEv
libxpum.so.1:_ZN4xpum21DELLRedfishAmcManager25getAMCFirmwareFlashResultERNS_30GetAmcFirmwareFlashResultParamE
libxpum.so.1:_ZN4xpum21DELLRedfishAmcManager4initERNS_9InitParamE
libxpum.so.1:_ZN4xpum21DELLRedfishAmcManager7preInitEv
libxpum.so.1:_ZN4xpum21FabricMeasurementData10addRawDataEmmmmjjj
libxpum.so.1:_ZN4xpum21fwdata_device_versionB5cxx11EPKc
libxpum.so.1:_ZN4xpum21getOneLineFileContentENSt7__cxx1112basic_stringIcSt11char_traitsIcESaIcEEES5_
libxpum.so.1:_ZN4xpum21get_kernel_module_strEh
libxpum.so.1:_ZN4xpum21initialize_src_bufferEP25_ze_command_list_handle_tP26_ze_command_queue_handle_tPvPcm
libxpum.so.1:_ZN4xpum21pchProdStateToSkuTypeB5cxx11Ej
libxpum.so.1:_ZN4xpum21print_policy_for_demoERKNSt7__cxx1112basic_stringIcSt11char_traitsIcESaIcEEEPNS_13xpum_policy_tE
libxpum.so.1:_ZN4xpum21unpackAndGetImagePathEPKcS1_iRNSt7__cxx1112basic_stringIcSt11char_traitsIcESaIcEEES8_
libxpum.so.1:_ZN4xpum21xpumGetMetricsByGroupEjPNS_21xpum_device_metrics_tEPi
libxpum.so.1:_ZN4xpum22cmd_get_sensor_readingEPNS_14ipmi_address_tEhP8ipmi_buf
libxpum.so.1:_ZN4xpum22kernelSetArgumentValueEP19_ze_kernel_handle_tjmPKv
libxpum.so.1:_ZN4xpum22parse_sn_from_fru_dataERKSt6vectorIhSaIhEERNSt7__cxx1112basic_stringIcSt11char_traitsIcESaIcEEE
libxpum.so.1:_ZN4xpum23DNPRedfishHostInterface9genHostIpEv
libxpum.so.1:_ZN4xpum23ScheduledThreadPoolTask10getExeTimeEv
libxpum.so.1:_ZN4xpum23ScheduledThreadPoolTask3runEv
libxpum.so.1:_ZN4xpum23ScheduledThreadPoolTask4nextEv
libxpum.so.1:_ZN4xpum23ScheduledThreadPoolTask5afterESt10shared_ptrIS0_E
libxpum.so.1:_ZN4xpum23ScheduledThreadPoolTask6cancelEv
libxpum.so.1:_ZN4xpum23commandQueueSynchronizeEP26_ze_command_queue_handle_t
libxpum.so.1:_ZN4xpum23getPCIAddrAndMeiDevicesEv
libxpum.so.1:_ZN4xpum23getTxCalBlobByMeiDeviceERKNSt7__cxx1112basic_stringIcSt11char_traitsIcESaIcEEE
libxpum.so.1:_ZN4xpum23getTxCalDateByMeiDeviceERKNSt7__cxx1112basic_stringIcSt11char_traitsIcESaIcEEE
libxpum.so.1:_ZN4xpum23keepTwoDecimalPrecisionB5cxx11Ed
libxpum.so.1:_ZN4xpum23teeInitAndConnectByPathEP10_TEEHANDLEPK5_GUIDPKc
libxpum.so.1:_ZN4xpum23xpumGetFabricThroughputEiPNS_38xpum_device_fabric_throughput_metric_tEPj
libxpum.so.1:_ZN4xpum24commandListAppendBarrierEP25_ze_command_list_handle_t
libxpum.so.1:_ZN4xpum24getMeiDeviceNameFromPathERKNSt7__cxx1112basic_stringIcSt11char_traitsIcESaIcEEE
libxpum.so.1:_ZN4xpum24print_policy_for_demoEx2ERKNSt7__cxx1112basic_stringIcSt11char_traitsIcESaIcEEESt10shared_ptrINS_16xpum_policy_dataEE
libxpum.so.1:_ZN4xpum24zeDeviceCanAccessAllPeerESt6vectorIP19_ze_device_handle_tSaIS2_EE
libxpum.so.1:_ZN4xpum25FlorenceRedfishAmcManager16flashAMCFirmwareERNS_21FlashAmcFirmwareParamE
libxpum.so.1:_ZN4xpum25FlorenceRedfishAmcManager17bindIpToInterfaceEv
libxpum.so.1:_ZN4xpum25FlorenceRedfishAmcManager17getRedfishAmcWarnB5cxx11Ev
libxpum.so.1:_ZN4xpum25FlorenceRedfishAmcManager19getAMCSensorReadingERNS_24GetAmcSensorReadingParamE
libxpum.so.1:_ZN4xpum25FlorenceRedfishAmcManager22getAmcFirmwareVersionsERNS_27GetAmcFirmwareVersionsParamE
libxpum.so.1:_ZN4xpum25FlorenceRedfishAmcManager23getAMCSlotSerialNumbersERNS_28GetAmcSlotSerialNumbersParamE
libxpum.so.1:_ZN4xpum25FlorenceRedfishAmcManager24redfishHostInterfaceInitEv
libxpum.so.1:_ZN4xpum25FlorenceRedfishAmcManager25getAMCFirmwareFlashResultERNS_30GetAmcFirmwareFlashResultParamE
libxpum.so.1:_ZN4xpum25FlorenceRedfishAmcManager4initERNS_9InitParamE
libxpum.so.1:_ZN4xpum25FlorenceRedfishAmcManager7preInitEv
libxpum.so.1:_ZN4xpum25GPUUtilizationDataHandler10getAverageERSt6vectorIjSaIjEE
libxpum.so.1:_ZN4xpum25GPUUtilizationDataHandler10handleDataERSt10shared_ptrINS_10SharedDataEE
libxpum.so.1:_ZN4xpum25GPUUtilizationDataHandler13calculateDataERSt10shared_ptrINS_10SharedDataEE
libxpum.so.1:_ZN4xpum25GPUUtilizationDataHandlerC1ENS_15MeasurementTypeERSt10shared_ptrINS_11PersistencyEE
libxpum.so.1:_ZN4xpum25GPUUtilizationDataHandlerC2ENS_15MeasurementTypeERSt10shared_ptrINS_11PersistencyEE
libxpum.so.1:_ZN4xpum25GPUUtilizationDataHandlerD0Ev
libxpum.so.1:_ZN4xpum25GPUUtilizationDataHandlerD1Ev
libxpum.so.1:_ZN4xpum25GPUUtilizationDataHandlerD2Ev
libxpum.so.1:_ZN4xpum25getDeviceInternalPropertyENS_30xpum_device_property_name_enumE
libxpum.so.1:_ZN4xpum25getDevicePchProdStateTypeENSt7__cxx1112basic_stringIcSt11char_traitsIcESaIcEEE
libxpum.so.1:_ZN4xpum25validateDeviceIdAndTileIdEii
libxpum.so.1:_ZN4xpum25xpumGetEngineUtilizationsEiPNS_27xpum_device_engine_metric_tEPj
libxpum.so.1:_ZN4xpum27DenaliPassRedfishAmcManager16flashAMCFirmwareERNS_21FlashAmcFirmwareParamE
libxpum.so.1:_ZN4xpum27DenaliPassRedfishAmcManager17bindIpToInterfaceEv
libxpum.so.1:_ZN4xpum27DenaliPassRedfishAmcManager17getRedfishAmcWarnB5cxx11Ev
libxpum.so.1:_ZN4xpum27DenaliPassRedfishAmcManager19getAMCSensorReadingERNS_24GetAmcSensorReadingParamE
libxpum.so.1:_ZN4xpum27DenaliPassRedfishAmcManager22getAmcFirmwareVersionsERNS_27GetAmcFirmwareVersionsParamE
libxpum.so.1:_ZN4xpum27DenaliPassRedfishAmcManager23getAMCSlotSerialNumbersERNS_28GetAmcSlotSerialNumbersParamE
libxpum.so.1:_ZN4xpum27DenaliPassRedfishAmcManager24redfishHostInterfaceInitEv
libxpum.so.1:_ZN4xpum27DenaliPassRedfishAmcManager25getAMCFirmwareFlashResultERNS_30GetAmcFirmwareFlashResultParamE
libxpum.so.1:_ZN4xpum27DenaliPassRedfishAmcManager4initERNS_9InitParamE
libxpum.so.1:_ZN4xpum27DenaliPassRedfishAmcManager7preInitEv
libxpum.so.1:_ZN4xpum27FabricThroughputDataHandler10handleDataERSt10shared_ptrINS_10SharedDataEE
libxpum.so.1:_ZN4xpum27FabricThroughputDataHandler13calculateDataERSt10shared_ptrINS_10SharedDataEE
libxpum.so.1:_ZN4xpum27FabricThroughputDataHandlerC1ENS_15MeasurementTypeERSt10shared_ptrINS_11PersistencyEE
libxpum.so.1:_ZN4xpum27FabricThroughputDataHandlerC2ENS_15MeasurementTypeERSt10shared_ptrINS_11PersistencyEE
libxpum.so.1:_ZN4xpum27FabricThroughputDataHandlerD0Ev
libxpum.so.1:_ZN4xpum27FabricThroughputDataHandlerD1Ev
libxpum.so.1:_ZN4xpum27FabricThroughputDataHandlerD2Ev
libxpum.so.1:_ZN4xpum27commandListAppendMemoryCopyEP25_ze_command_list_handle_tPvPKvm
libxpum.so.1:_ZN4xpum27commandListAppendMemoryFillEP25_ze_command_list_handle_tPvPKvmm
libxpum.so.1:_ZN4xpum27getAMCFirmwareVersionInBandERNSt7__cxx1112basic_stringIcSt11char_traitsIcESaIcEEES5_
libxpum.so.1:_ZN4xpum27getDeviceAndTileEngineCountEi
libxpum.so.1:_ZN4xpum27getDeviceAndTileFabricCountEi
libxpum.so.1:_ZN4xpum28EngineUtilizationDataHandler10handleDataERSt10shared_ptrINS_10SharedDataEE
libxpum.so.1:_ZN4xpum28EngineUtilizationDataHandler13calculateDataERSt10shared_ptrINS_10SharedDataEE
libxpum.so.1:_ZN4xpum28EngineUtilizationDataHandlerC1ENS_15MeasurementTypeERSt10shared_ptrINS_11PersistencyEE
libxpum.so.1:_ZN4xpum28EngineUtilizationDataHandlerC2ENS_15MeasurementTypeERSt10shared_ptrINS_11PersistencyEE
libxpum.so.1:_ZN4xpum28EngineUtilizationDataHandlerD0Ev
libxpum.so.1:_ZN4xpum28EngineUtilizationDataHandlerD1Ev
libxpum.so.1:_ZN4xpum28EngineUtilizationDataHandlerD2Ev
libxpum.so.1:_ZN4xpum28MultiMetricsStatsDataHandler10handleDataERSt10shared_ptrINS_10SharedDataEE
libxpum.so.1:_ZN4xpum28MultiMetricsStatsDataHandler15resetStatisticsERNSt7__cxx1112basic_stringIcSt11char_traitsIcESaIcEEEm
libxpum.so.1:_ZN4xpum28MultiMetricsStatsDataHandler16updateStatisticsERSt10shared_ptrINS_10SharedDataEE
libxpum.so.1:_ZN4xpum28MultiMetricsStatsDataHandler19getLatestStatisticsERNSt7__cxx1112basic_stringIcSt11char_traitsIcESaIcEEEm
libxpum.so.1:_ZN4xpum28MultiMetricsStatsDataHandlerC1ENS_15MeasurementTypeERSt10shared_ptrINS_11PersistencyEE
libxpum.so.1:_ZN4xpum28MultiMetricsStatsDataHandlerC2ENS_15MeasurementTypeERSt10shared_ptrINS_11PersistencyEE
libxpum.so.1:_ZN4xpum28MultiMetricsStatsDataHandlerD0Ev
libxpum.so.1:_ZN4xpum28MultiMetricsStatsDataHandlerD1Ev
libxpum.so.1:_ZN4xpum28MultiMetricsStatsDataHandlerD2Ev
libxpum.so.1:_ZN4xpum28setPercentCallbackAndContextEPFvjPvES0_
libxpum.so.1:_ZN4xpum29cmd_get_amc_firmware_versionsEPA4_iPi
libxpum.so.1:_ZN4xpum29commandListAppendLaunchKernelEP25_ze_command_list_handle_tP19_ze_kernel_handle_tPK17_ze_group_count_t
libxpum.so.1:_ZN4xpum30TimeWeightedAverageDataHandler10handleDataERSt10shared_ptrINS_10SharedDataEE
libxpum.so.1:_ZN4xpum30TimeWeightedAverageDataHandler13calculateDataERSt10shared_ptrINS_10SharedDataEE
libxpum.so.1:_ZN4xpum30TimeWeightedAverageDataHandler24counterOverflowDetectionERSt10shared_ptrINS_10SharedDataEE
libxpum.so.1:_ZN4xpum30TimeWeightedAverageDataHandlerC1ENS_15MeasurementTypeERSt10shared_ptrINS_11PersistencyEE
libxpum.so.1:_ZN4xpum30TimeWeightedAverageDataHandlerC2ENS_15MeasurementTypeERSt10shared_ptrINS_11PersistencyEE
libxpum.so.1:_ZN4xpum30TimeWeightedAverageDataHandlerD0Ev
libxpum.so.1:_ZN4xpum30TimeWeightedAverageDataHandlerD1Ev
libxpum.so.1:_ZN4xpum30TimeWeightedAverageDataHandlerD2Ev
libxpum.so.1:_ZN4xpum30get_pci_device_by_bar0_addressEjPNS_13pci_address_tE
libxpum.so.1:_ZN4xpum31EngineCollectionMeasurementData10addRawDataEm19_zes_engine_group_tbjmm
libxpum.so.1:_ZN4xpum31EngineCollectionMeasurementData13getEngineTypeEm
libxpum.so.1:_ZN4xpum31commandQueueExecuteCommandListsEP26_ze_command_queue_handle_tP25_ze_command_list_handle_t
libxpum.so.1:_ZN4xpum31xpum_policy_triggered_for_traceEPNS_34xpum_policy_notify_callback_para_tE
libxpum.so.1:_ZN4xpum32isFwDataImageAndDeviceCompatibleERSt6vectorIcSaIcEENSt7__cxx1112basic_stringIcSt11char_traitsIcES1_EE
libxpum.so.1:_ZN4xpum32xe_link_all_to_all_parallel_copyERKP19_ze_driver_handle_tSt6vectorIP19_ze_device_handle_tSaIS6_EES4_IS4_IbSaIbEESaISA_EE
libxpum.so.1:_ZN4xpum33EngineGroupUtilizationDataHandler10getAverageERSt6vectorIjSaIjEE
libxpum.so.1:_ZN4xpum33EngineGroupUtilizationDataHandler10handleDataERSt10shared_ptrINS_10SharedDataEE
libxpum.so.1:_ZN4xpum33EngineGroupUtilizationDataHandler13calculateDataERSt10shared_ptrINS_10SharedDataEE
libxpum.so.1:_ZN4xpum33EngineGroupUtilizationDataHandlerC1ENS_15MeasurementTypeERSt10shared_ptrINS_11PersistencyEE
libxpum.so.1:_ZN4xpum33EngineGroupUtilizationDataHandlerC2ENS_15MeasurementTypeERSt10shared_ptrINS_11PersistencyEE
libxpum.so.1:_ZN4xpum33EngineGroupUtilizationDataHandlerD0Ev
libxpum.so.1:_ZN4xpum33EngineGroupUtilizationDataHandlerD1Ev
libxpum.so.1:_ZN4xpum33EngineGroupUtilizationDataHandlerD2Ev
libxpum.so.1:_ZN4xpum34getMinAndMaxPowerLimitMultiMethodsENSt7__cxx1112basic_stringIcSt11char_traitsIcESaIcEEENS_5PowerERiS7_
libxpum.so.1:_ZN4xpum4Core12getDataLogicEv
libxpum.so.1:_ZN4xpum4Core13isInitializedEv
libxpum.so.1:_ZN4xpum4Core14getVgpuManagerEv
libxpum.so.1:_ZN4xpum4Core15getGroupManagerEv
libxpum.so.1:_ZN4xpum4Core15isZeInitializedEv
libxpum.so.1:_ZN4xpum4Core16getDeviceManagerEv
libxpum.so.1:_ZN4xpum4Core16getHealthManagerEv
libxpum.so.1:_ZN4xpum4Core16getPolicyManagerEv
libxpum.so.1:_ZN4xpum4Core16setZeInitializedEb
libxpum.so.1:_ZN4xpum4Core17apiAccessPreCheckEv
libxpum.so.1:_ZN4xpum4Core17getMonitorManagerEv
libxpum.so.1:_ZN4xpum4Core18getFirmwareManagerEv
libxpum.so.1:_ZN4xpum4Core20getDiagnosticManagerEv
libxpum.so.1:_ZN4xpum4Core21getDumpRawDataManagerEv
libxpum.so.1:_ZN4xpum4Core4initEv
libxpum.so.1:_ZN4xpum4Core5closeERKSt10shared_ptrINS_18InitCloseInterfaceEERKNSt7__cxx1112basic_stringIcSt11char_traitsIcESaIcEEE
libxpum.so.1:_ZN4xpum4Core5closeEv
libxpum.so.1:_ZN4xpum4Core8instanceEv
libxpum.so.1:_ZN4xpum4CoreC1Ev
libxpum.so.1:_ZN4xpum4CoreC2Ev
libxpum.so.1:_ZN4xpum4CoreD0Ev
libxpum.so.1:_ZN4xpum4CoreD1Ev
libxpum.so.1:_ZN4xpum4CoreD2Ev
libxpum.so.1:_ZN4xpum4dump22getConfigOptionPointerENS_19xpum_dump_type_enumE
libxpum.so.1:_ZN4xpum5Power10canControlEv
libxpum.so.1:_ZN4xpum5Power11getMaxLimitEv
libxpum.so.1:_ZN4xpum5Power11getMinLimitEv
libxpum.so.1:_ZN4xpum5Power11onSubdeviceEv
libxpum.so.1:_ZN4xpum5Power14getPowerLimitsERNS_23Power_sustained_limit_tERNS_19Power_burst_limit_tERNS_18Power_peak_limit_tE
libxpum.so.1:_ZN4xpum5Power14getSubdeviceIdEv
libxpum.so.1:_ZN4xpum5Power14setPowerLimitsERKNS_23Power_sustained_limit_tERKNS_19Power_burst_limit_tERKNS_18Power_peak_limit_tE
libxpum.so.1:_ZN4xpum5Power15getDefaultLimitEv
libxpum.so.1:_ZN4xpum5Power26isEnergyThresholdSupportedEv
libxpum.so.1:_ZN4xpum5PowerC1Ebjbbiii
libxpum.so.1:_ZN4xpum5PowerC2Ebjbbiii
libxpum.so.1:_ZN4xpum5PowerD0Ev
libxpum.so.1:_ZN4xpum5PowerD1Ev
libxpum.so.1:_ZN4xpum5PowerD2Ev
libxpum.so.1:_ZN4xpum5Timer19scheduleAtFixedRateEliSt8functionIFvvEE
libxpum.so.1:_ZN4xpum5Timer6cancelEv
libxpum.so.1:_ZN4xpum5Timer8scheduleEiSt8functionIFvvEE
libxpum.so.1:_ZN4xpum5Timer9isCanceldEv
libxpum.so.1:_ZN4xpum5TimerC1Ev
libxpum.so.1:_ZN4xpum5TimerC2Ev
libxpum.so.1:_ZN4xpum5TimerD1Ev
libxpum.so.1:_ZN4xpum5TimerD2Ev
libxpum.so.1:_ZN4xpum5doCmdENSt7__cxx1112basic_stringIcSt11char_traitsIcESaIcEEERS5_
libxpum.so.1:_ZN4xpum6Device11addPropertyENS_8PropertyE
libxpum.so.1:_ZN4xpum6Device11getPropertyENS_39xpum_device_internal_property_name_enumERNS_8PropertyE
libxpum.so.1:_ZN4xpum6Device11setFabricIDEj
libxpum.so.1:_ZN4xpum6Device13addCapabilityERNS_16DeviceCapabilityE
libxpum.so.1:_ZN4xpum6Device13getCapabilityERSt6vectorINS_16DeviceCapabilityESaIS2_EE
libxpum.so.1:_ZN4xpum6Device13getPropertiesERSt6vectorINS_8PropertyESaIS2_EE
libxpum.so.1:_ZN4xpum6Device13hasCapabilityERNS_16DeviceCapabilityE
libxpum.so.1:_ZN4xpum6Device13isUpgradingFwEv
libxpum.so.1:_ZN4xpum6Device14getDeviceModelEv
libxpum.so.1:_ZN4xpum6Device14getEngineCountEi19_zes_engine_group_t
libxpum.so.1:_ZN4xpum6Device14getEngineCountEv
libxpum.so.1:_ZN4xpum6Device14getEngineIndexEm
libxpum.so.1:_ZN4xpum6Device14removePropertyENS_39xpum_device_internal_property_name_enumE
libxpum.so.1:_ZN4xpum6Device15getDeviceHandleEv
libxpum.so.1:_ZN4xpum6Device15getDeviceMethodERNS_16DeviceCapabilityEPS0_
libxpum.so.1:_ZN4xpum6Device15getDriverHandleEv
libxpum.so.1:_ZN4xpum6Device16removeCapabilityERNS_16DeviceCapabilityE
libxpum.so.1:_ZN4xpum6Device16runFirmwareFlashERNS_24RunGSCFirmwareFlashParamE
libxpum.so.1:_ZN4xpum6Device17getDeviceZeHandleEv
libxpum.so.1:_ZN4xpum6Device19addFabricPortHandleEjjjP25_zes_fabric_port_handle_t
libxpum.so.1:_ZN4xpum6Device20getThroughputHandlesEv
libxpum.so.1:_ZN4xpum6Device21getFabricThroughputIDEjjjNS_20FabricThroughputTypeE
libxpum.so.1:_ZN4xpum6Device22getFabricThroughputIDSEv
libxpum.so.1:_ZN4xpum6Device22getFirmwareFlashResultERNS_30GetGSCFirmwareFlashResultParamE
libxpum.so.1:_ZN4xpum6Device23getFabricThroughputInfoEmRNS_22FabricThroughputInfo_tE
libxpum.so.1:_ZN4xpum6Device28getFabricThroughputInfoCountEv
libxpum.so.1:_ZN4xpum6Device5getIdB5cxx11Ev
libxpum.so.1:_ZN4xpum6Device9addEngineEm19_zes_engine_group_tbj
libxpum.so.1:_ZN4xpum6DeviceC1Ev
libxpum.so.1:_ZN4xpum6DeviceC2Ev
libxpum.so.1:_ZN4xpum6HWInfo13getDevicePathERKNSt7__cxx1112basic_stringIcSt11char_traitsIcESaIcEEE
libxpum.so.1:_ZN4xpum6HWInfo14isPcieDevExistEi
libxpum.so.1:_ZN4xpum6toCidrEPKc
libxpum.so.1:_ZN4xpum7PscMgmt10flashPscFwERNS_15FlashPscFwParamE
libxpum.so.1:_ZN4xpum7PscMgmt15getPscFwVersionEv
libxpum.so.1:_ZN4xpum7PscMgmt19getFlashPscFwResultERNS_24GetFlashPscFwResultParamE
libxpum.so.1:_ZN4xpum7StandbyC1E19_zes_standby_type_tbj25_zes_standby_promo_mode_t
libxpum.so.1:_ZN4xpum7StandbyC2E19_zes_standby_type_tbj25_zes_standby_promo_mode_t
libxpum.so.1:_ZN4xpum7StandbyD0Ev
libxpum.so.1:_ZN4xpum7StandbyD1Ev
libxpum.so.1:_ZN4xpum7StandbyD2Ev
libxpum.so.1:_ZN4xpum7Utility13getTimeStringB5cxx11Ex
libxpum.so.1:_ZN4xpum7Utility13isPVCPlatformERKP19_ze_device_handle_t
libxpum.so.1:_ZN4xpum7Utility14getCurrentTimeEv
libxpum.so.1:_ZN4xpum7Utility14isATSMPlatformERKP19_ze_device_handle_t
libxpum.so.1:_ZN4xpum7Utility15getMetricsTypesERSt6vectorINS_15MeasurementTypeESaIS2_EE
libxpum.so.1:_ZN4xpum7Utility15isCounterMetricENS_15MeasurementTypeE
libxpum.so.1:_ZN4xpum7Utility15toZESEngineTypeENS_21xpum_engine_type_enumE
libxpum.so.1:_ZN4xpum7Utility16toXPUMEngineTypeE19_zes_engine_group_t
libxpum.so.1:_ZN4xpum7Utility18getLocalTimeStringB5cxx11Emb
libxpum.so.1:_ZN4xpum7Utility19parallel_in_batchesEjjSt8functionIFviiEEb
libxpum.so.1:_ZN4xpum7Utility20getCurrentTimeStringB5cxx11Ev
libxpum.so.1:_ZN4xpum7Utility21getCurrentMillisecondEv
libxpum.so.1:_ZN4xpum7Utility22getXpumStatsTypeStringB5cxx11ENS_15MeasurementTypeE
libxpum.so.1:_ZN4xpum7Utility25getCurrentLocalTimeStringB5cxx11Eb
libxpum.so.1:_ZN4xpum7Utility26toXPUMFabricThroughputTypeENS_20FabricThroughputTypeE
libxpum.so.1:_ZN4xpum7Utility29capabilityFromMeasurementTypeERKNS_15MeasurementTypeE
libxpum.so.1:_ZN4xpum7Utility29measurementTypeFromCapabilityERNS_16DeviceCapabilityE
libxpum.so.1:_ZN4xpum7Utility32measurementTypeFromXpumStatsTypeERNS_20xpum_stats_type_enumE
libxpum.so.1:_ZN4xpum7Utility32xpumStatsTypeFromMeasurementTypeERNS_15MeasurementTypeE
libxpum.so.1:_ZN4xpum7Utility5splitERKNSt7__cxx1112basic_stringIcSt11char_traitsIcESaIcEEEc
libxpum.so.1:_ZN4xpum7Utility8isMetricENS_15MeasurementTypeE
libxpum.so.1:_ZN4xpum7Utility9getUEventERNS_6UEventEPKc
libxpum.so.1:_ZN4xpum7Version10getVersionB5cxx11Ev
libxpum.so.1:_ZN4xpum7Version13getVersionGitB5cxx11Ev
libxpum.so.1:_ZN4xpum7Version15getZeLibVersionB5cxx11Ev
libxpum.so.1:_ZN4xpum7get_sdrEPNS_14ipmi_address_tERtP8ipmi_buf
libxpum.so.1:_ZN4xpum7readRc6EPNS_9GPUDeviceERSt6vectorIiSaIiEERb
libxpum.so.1:_ZN4xpum8Topology10numaDeviceEP14hwloc_topologyR18_zes_pci_address_tRjRNSt7__cxx1112basic_stringIcSt11char_traitsIcESaIcEEE
libxpum.so.1:_ZN4xpum8Topology11getPcieTopoENSt7__cxx1112basic_stringIcSt11char_traitsIcESaIcEEERSt6vectorI18_zes_pci_address_tSaIS8_EEbb
libxpum.so.1:_ZN4xpum8Topology12getLocalCpusENSt7__cxx1112basic_stringIcSt11char_traitsIcESaIcEEE
libxpum.so.1:_ZN4xpum8Topology13clearTopologyEv
libxpum.so.1:_ZN4xpum8Topology13getSwitchTopoENSt7__cxx1112basic_stringIcSt11char_traitsIcESaIcEEEPNS_15xpum_topology_tEPmb
libxpum.so.1:_ZN4xpum8Topology13getXelinkTopoERSt6vectorISt10shared_ptrINS_6DeviceEESaIS4_EERS1_INS_21xpum_fabric_port_pairESaIS8_EE
libxpum.so.1:_ZN4xpum8Topology13reNewTopologyEb
libxpum.so.1:_ZN4xpum8Topology14isSwitchDeviceEP9hwloc_obj
libxpum.so.1:_ZN4xpum8Topology14pci2RegxStringB5cxx11EP9hwloc_obj
libxpum.so.1:_ZN4xpum8Topology16getLocalCpusListENSt7__cxx1112basic_stringIcSt11char_traitsIcESaIcEEE
libxpum.so.1:_ZN4xpum8Topology17hasChildPciDeviceEP9hwloc_objiiii
libxpum.so.1:_ZN4xpum8Topology18get_p_switch_countEP9hwloc_obj
libxpum.so.1:_ZN4xpum8Topology21get_p_switch_dev_pathEP9hwloc_objPNS_13parent_switchE
libxpum.so.1:_ZN4xpum8Topology6getBDFENSt7__cxx1112basic_stringIcSt11char_traitsIcESaIcEEER18_zes_pci_address_t
libxpum.so.1:_ZN4xpum8Topology8topo2xmlEPcPiRSt3mapISt4pairIiiENS_13GraphicDeviceESt4lessIS5_ESaIS4_IKS5_S6_EEE
libxpum.so.1:_ZN4xpum8Topology9export_cbEPvP14hwloc_topologyP9hwloc_obj
libxpum.so.1:_ZN4xpum8TopologyC1Ev
libxpum.so.1:_ZN4xpum8TopologyC2Ev
libxpum.so.1:_ZN4xpum8TopologyD0Ev
libxpum.so.1:_ZN4xpum8TopologyD1Ev
libxpum.so.1:_ZN4xpum8TopologyD2Ev
libxpum.so.1:_ZN4xpum8do_sleepEi
libxpum.so.1:_ZN4xpum8writeRc6EPNS_9GPUDeviceERSt6vectorIiSaIiEE
libxpum.so.1:_ZN4xpum9DataLogic13getLatestDataENS_15MeasurementTypeERNSt7__cxx1112basic_stringIcSt11char_traitsIcESaIcEEE
libxpum.so.1:_ZN4xpum9DataLogic16getLatestMetricsEiPNS_21xpum_device_metrics_tEPi
libxpum.so.1:_ZN4xpum9DataLogic17getFabricLinkInfoEiPNS_16FabricLinkInfo_tEPj
libxpum.so.1:_ZN4xpum9DataLogic17getStatsTimestampEjj
libxpum.so.1:_ZN4xpum9DataLogic19getEngineStatisticsEiPNS_26xpum_device_engine_stats_tEPjPmS4_m
libxpum.so.1:_ZN4xpum9DataLogic19getFabricThroughputEiPNS_38xpum_device_fabric_throughput_metric_tEPj
libxpum.so.1:_ZN4xpum9DataLogic19getLatestStatisticsENS_15MeasurementTypeERNSt7__cxx1112basic_stringIcSt11char_traitsIcESaIcEEEm
libxpum.so.1:_ZN4xpum9DataLogic20getMetricsStatisticsEiPNS_19xpum_device_stats_tEPjPmS4_m
libxpum.so.1:_ZN4xpum9DataLogic20storeMeasurementDataENS_15MeasurementTypeExSt10shared_ptrISt3mapINSt7__cxx1112basic_stringIcSt11char_traitsIcESaIcEEES2_INS_15MeasurementDataEESt4lessIS9_ESaISt4pairIKS9_SB_EEEE
libxpum.so.1:_ZN4xpum9DataLogic20updateStatsTimestampEjj
libxpum.so.1:_ZN4xpum9DataLogic21getEngineUtilizationsEiPNS_27xpum_device_engine_metric_tEPj
libxpum.so.1:_ZN4xpum9DataLogic23getEngineStatsTimestampEjj
libxpum.so.1:_ZN4xpum9DataLogic23getFabricStatsTimestampEjj
libxpum.so.1:_ZN4xpum9DataLogic26updateEngineStatsTimestampEjj
libxpum.so.1:_ZN4xpum9DataLogic26updateFabricStatsTimestampEjj
libxpum.so.1:_ZN4xpum9DataLogic29getFabricThroughputStatisticsEiPNS_37xpum_device_fabric_throughput_stats_tEPjPmS4_m
libxpum.so.1:_ZN4xpum9DataLogic4initEv
libxpum.so.1:_ZN4xpum9DataLogic5closeEv
libxpum.so.1:_ZN4xpum9DataLogicC1Ev
libxpum.so.1:_ZN4xpum9DataLogicC2Ev
libxpum.so.1:_ZN4xpum9DataLogicD0Ev
libxpum.so.1:_ZN4xpum9DataLogicD1Ev
libxpum.so.1:_ZN4xpum9DataLogicD2Ev
libxpum.so.1:_ZN4xpum9FrequencyC1E18_zes_freq_domain_tbjbbdd
libxpum.so.1:_ZN4xpum9FrequencyC1E18_zes_freq_domain_tjdd
libxpum.so.1:_ZN4xpum9FrequencyC2E18_zes_freq_domain_tbjbbdd
libxpum.so.1:_ZN4xpum9FrequencyC2E18_zes_freq_domain_tjdd
libxpum.so.1:_ZN4xpum9FrequencyD0Ev
libxpum.so.1:_ZN4xpum9FrequencyD1Ev
libxpum.so.1:_ZN4xpum9FrequencyD2Ev
libxpum.so.1:_ZN4xpum9GPUDevice11getPCIeReadESt8functionIFvSt10shared_ptrIvES2_INS_13BaseExceptionEEEE
libxpum.so.1:_ZN4xpum9GPUDevice11getRasErrorESt8functionIFvSt10shared_ptrIvES2_INS_13BaseExceptionEEEERK20_zes_ras_error_cat_tRK21_zes_ras_error_type_t
libxpum.so.1:_ZN4xpum9GPUDevice12getPCIeWriteESt8functionIFvSt10shared_ptrIvES2_INS_13BaseExceptionEEEE
libxpum.so.1:_ZN4xpum9GPUDevice13isUpgradingFwEv
libxpum.so.1:_ZN4xpum9GPUDevice14getPerfMetricsESt8functionIFvSt10shared_ptrIvES2_INS_13BaseExceptionEEEE
libxpum.so.1:_ZN4xpum9GPUDevice14getTemperatureESt8functionIFvSt10shared_ptrIvES2_INS_13BaseExceptionEEEE19_zes_temp_sensors_t
libxpum.so.1:_ZN4xpum9GPUDevice16runFirmwareFlashERNS_24RunGSCFirmwareFlashParamE
libxpum.so.1:_ZN4xpum9GPUDevice17getGPUUtilizationESt8functionIFvSt10shared_ptrIvES2_INS_13BaseExceptionEEEE
libxpum.so.1:_ZN4xpum9GPUDevice19getFabricThroughputESt8functionIFvSt10shared_ptrIvES2_INS_13BaseExceptionEEEE
libxpum.so.1:_ZN4xpum9GPUDevice20dumpFirmwareFlashLogEv
libxpum.so.1:_ZN4xpum9GPUDevice20getEngineUtilizationESt8functionIFvSt10shared_ptrIvES2_INS_13BaseExceptionEEEE
libxpum.so.1:_ZN4xpum9GPUDevice20getEuActiveStallIdleESt8functionIFvSt10shared_ptrIvES2_INS_13BaseExceptionEEEENS_15MeasurementTypeE
libxpum.so.1:_ZN4xpum9GPUDevice20getFrequencyThrottleESt8functionIFvSt10shared_ptrIvES2_INS_13BaseExceptionEEEE
libxpum.so.1:_ZN4xpum9GPUDevice21getPCIeReadThroughputESt8functionIFvSt10shared_ptrIvES2_INS_13BaseExceptionEEEE
libxpum.so.1:_ZN4xpum9GPUDevice22getFirmwareFlashResultERNS_30GetGSCFirmwareFlashResultParamE
libxpum.so.1:_ZN4xpum9GPUDevice22getPCIeWriteThroughputESt8functionIFvSt10shared_ptrIvES2_INS_13BaseExceptionEEEE
libxpum.so.1:_ZN4xpum9GPUDevice22getRasErrorOnSubdeviceESt8functionIFvSt10shared_ptrIvES2_INS_13BaseExceptionEEEE
libxpum.so.1:_ZN4xpum9GPUDevice22getRasErrorOnSubdeviceESt8functionIFvSt10shared_ptrIvES2_INS_13BaseExceptionEEEERK20_zes_ras_error_cat_tRK21_zes_ras_error_type_t
libxpum.so.1:_ZN4xpum9GPUDevice24getMemoryUsedUtilizationESt8functionIFvSt10shared_ptrIvES2_INS_13BaseExceptionEEEE
libxpum.so.1:_ZN4xpum9GPUDevice24isUpgradingFwResultReadyEv
libxpum.so.1:_ZN4xpum9GPUDevice25getEngineGroupUtilizationESt8functionIFvSt10shared_ptrIvES2_INS_13BaseExceptionEEEE19_zes_engine_group_t
libxpum.so.1:_ZN4xpum9GPUDevice26getActuralRequestFrequencyESt8functionIFvSt10shared_ptrIvES2_INS_13BaseExceptionEEEE
libxpum.so.1:_ZN4xpum9GPUDevice26getFrequencyThrottleReasonESt8functionIFvSt10shared_ptrIvES2_INS_13BaseExceptionEEEE
libxpum.so.1:_ZN4xpum9GPUDevice31getMemoryThroughputAndBandwidthESt8functionIFvSt10shared_ptrIvES2_INS_13BaseExceptionEEEE
libxpum.so.1:_ZN4xpum9GPUDevice8getPowerESt8functionIFvSt10shared_ptrIvES2_INS_13BaseExceptionEEEE
libxpum.so.1:_ZN4xpum9GPUDevice9getEnergyESt8functionIFvSt10shared_ptrIvES2_INS_13BaseExceptionEEEE
libxpum.so.1:_ZN4xpum9GPUDeviceC1ERKNSt7__cxx1112basic_stringIcSt11char_traitsIcESaIcEEERKP19_ze_device_handle_tRSt6vectorINS_16DeviceCapabilityESaISE_EE
libxpum.so.1:_ZN4xpum9GPUDeviceC1ERKNSt7__cxx1112basic_stringIcSt11char_traitsIcESaIcEEERKP19_ze_device_handle_tSC_RKP19_ze_driver_handle_tRSt6vectorINS_16DeviceCapabilityESaISI_EE
libxpum.so.1:_ZN4xpum9GPUDeviceC1Ev
libxpum.so.1:_ZN4xpum9GPUDeviceC2ERKNSt7__cxx1112basic_stringIcSt11char_traitsIcESaIcEEERKP19_ze_device_handle_tRSt6vectorINS_16DeviceCapabilityESaISE_EE
libxpum.so.1:_ZN4xpum9GPUDeviceC2ERKNSt7__cxx1112basic_stringIcSt11char_traitsIcESaIcEEERKP19_ze_device_handle_tSC_RKP19_ze_driver_handle_tRSt6vectorINS_16DeviceCapabilityESaISI_EE
libxpum.so.1:_ZN4xpum9GPUDeviceC2Ev
libxpum.so.1:_ZN4xpum9GPUDeviceD0Ev
libxpum.so.1:_ZN4xpum9GPUDeviceD1Ev
libxpum.so.1:_ZN4xpum9GPUDeviceD2Ev
libxpum.so.1:_ZN4xpum9GroupUnit11setPcieTopoERSt6vectorI18_zes_pci_address_tSaIS2_EE
libxpum.so.1:_ZN4xpum9GroupUnit12removeDeviceERKSt10shared_ptrINS_22DeviceManagerInterfaceEEji
libxpum.so.1:_ZN4xpum9GroupUnit13deviceInGroupERSt6vectorI18_zes_pci_address_tSaIS2_EE
libxpum.so.1:_ZN4xpum9GroupUnit13getDeviceListEPi
libxpum.so.1:_ZN4xpum9GroupUnit14getDeviceCountEv
libxpum.so.1:_ZN4xpum9GroupUnit5getIdEv
libxpum.so.1:_ZN4xpum9GroupUnit7getNameEPc
libxpum.so.1:_ZN4xpum9GroupUnit9addDeviceEi
libxpum.so.1:_ZN4xpum9GroupUnitC1ENSt7__cxx1112basic_stringIcSt11char_traitsIcESaIcEEEj
libxpum.so.1:_ZN4xpum9GroupUnitC2ENSt7__cxx1112basic_stringIcSt11char_traitsIcESaIcEEEj
libxpum.so.1:_ZN4xpum9GroupUnitD1Ev
libxpum.so.1:_ZN4xpum9GroupUnitD2Ev
libxpum.so.1:_ZN4xpum9MemoryEcc10setCurrentENS_12_ecc_state_tE
libxpum.so.1:_ZN4xpum9MemoryEcc10setPendingENS_12_ecc_state_tE
libxpum.so.1:_ZN4xpum9MemoryEcc12setAvailableEb
libxpum.so.1:_ZN4xpum9MemoryEcc15setConfigurableEb
libxpum.so.1:_ZN4xpum9MemoryEcc9setActionENS_13_ecc_action_tE
libxpum.so.1:_ZN4xpum9MemoryEccC1EbbNS_12_ecc_state_tES1_NS_13_ecc_action_tE
libxpum.so.1:_ZN4xpum9MemoryEccC1Ev
libxpum.so.1:_ZN4xpum9MemoryEccC2EbbNS_12_ecc_state_tES1_NS_13_ecc_action_tE
libxpum.so.1:_ZN4xpum9MemoryEccC2Ev
libxpum.so.1:_ZN4xpum9MemoryEccD0Ev
libxpum.so.1:_ZN4xpum9MemoryEccD1Ev
libxpum.so.1:_ZN4xpum9MemoryEccD2Ev
libxpum.so.1:_ZN4xpum9Scheduler14getCurrentModeEv
libxpum.so.1:_ZN4xpum9Scheduler14getEngineTypesEv
libxpum.so.1:_ZN4xpum9Scheduler17getSupportedModesEv
libxpum.so.1:_ZN4xpum9SchedulerC1Ebjbjj17_zes_sched_mode_tmm
libxpum.so.1:_ZN4xpum9SchedulerC2Ebjbjj17_zes_sched_mode_tmm
libxpum.so.1:_ZN4xpum9SchedulerD0Ev
libxpum.so.1:_ZN4xpum9SchedulerD1Ev
libxpum.so.1:_ZN4xpum9SchedulerD2Ev
libxpum.so.1:_ZN4xpum9cmd_probeEv
libxpum.so.1:_ZN4xpum9read_fileEPKcPm
libxpum.so.1:_ZN4xpum9removeDirEPKc
libxpum.so.1:_ZN4xpumeqERK21_zes_fabric_port_id_tS2_
libxpum.so.1:_ZN4xpumeqERKNS_16xpum_xelink_unitES2_
libxpum.so.1:_ZN4xpumeqERKNS_21xpum_xelink_topo_infoES2_
libxpum.so.1:_ZNK4xpum10EngineInfo11onSubdeviceEv
libxpum.so.1:_ZNK4xpum10EngineInfo14getSubdeviceIdEv
libxpum.so.1:_ZNK4xpum10EngineInfo7getTypeEv
libxpum.so.1:_ZNK4xpum10EngineInfo8getIndexEv
libxpum.so.1:_ZNK4xpum17PerformanceFactor11onSubdeviceEv
libxpum.so.1:_ZNK4xpum17PerformanceFactor14getSubdeviceIdEv
libxpum.so.1:_ZNK4xpum17PerformanceFactor9getEngineEv
libxpum.so.1:_ZNK4xpum17PerformanceFactor9getFactorEv
libxpum.so.1:_ZNK4xpum7Standby11onSubdeviceEv
libxpum.so.1:_ZNK4xpum7Standby14getSubdeviceIdEv
libxpum.so.1:_ZNK4xpum7Standby7getModeEv
libxpum.so.1:_ZNK4xpum7Standby7getTypeEv
libxpum.so.1:_ZNK4xpum9Frequency10canControlEv
libxpum.so.1:_ZNK4xpum9Frequency11onSubdeviceEv
libxpum.so.1:_ZNK4xpum9Frequency12getTypeValueEv
libxpum.so.1:_ZNK4xpum9Frequency14getSubdeviceIdEv
libxpum.so.1:_ZNK4xpum9Frequency24isThrottleEventSupportedEv
libxpum.so.1:_ZNK4xpum9Frequency6getMaxEv
libxpum.so.1:_ZNK4xpum9Frequency6getMinEv
libxpum.so.1:_ZNK4xpum9Frequency7getTypeEv
libxpum.so.1:_ZNK4xpum9MemoryEcc10getCurrentEv
libxpum.so.1:_ZNK4xpum9MemoryEcc10getPendingEv
libxpum.so.1:_ZNK4xpum9MemoryEcc12getAvailableEv
libxpum.so.1:_ZNK4xpum9MemoryEcc15getConfigurableEv
libxpum.so.1:_ZNK4xpum9MemoryEcc9getActionEv
libxpum.so.1:_ZNK4xpum9Scheduler10canControlEv
libxpum.so.1:_ZNK4xpum9Scheduler11onSubdeviceEv
libxpum.so.1:_ZNK4xpum9Scheduler14getSubdeviceIdEv
libxpum.so.1:_ZNK4xpum9Scheduler7getVal1Ev
libxpum.so.1:_ZNK4xpum9Scheduler7getVal2Ev
libxpum.so.1:_ZNKSt12experimental10filesystem2v17__cxx1116filesystem_error4whatEv
libxpum.so.1:_ZNSt13__future_base13_State_baseV29_M_do_setEPSt8functionIFSt10unique_ptrINS_12_Result_baseENS3_8_DeleterEEvEEPb
libxpum.so.1:_ZNSt15_Sp_counted_ptrIDnLN9__gnu_cxx12_Lock_policyE2EE10_M_disposeEv
libxpum.so.1:_ZNSt15__exception_ptr12__dest_thunkISt12future_errorEEvPv
libxpum.so.1:_ZNSt16_Sp_counted_baseILN9__gnu_cxx12_Lock_policyE2EE10_M_destroyEv
libxpum.so.1:_ZNSt16_Sp_counted_baseILN9__gnu_cxx12_Lock_policyE2EE10_M_releaseEv
libxpum.so.1:_ZNSt16_Sp_counted_baseILN9__gnu_cxx12_Lock_policyE2EE24_M_release_last_use_coldEv
libxpum.so.1:_ZNSt17_Function_handlerIFbcENSt8__detail11_AnyMatcherINSt7__cxx1112regex_traitsIcEELb0ELb0ELb0EEEE10_M_managerERSt9_Any_dataRKS8_St18_Manager_operation
libxpum.so.1:_ZNSt17_Function_handlerIFbcENSt8__detail11_AnyMatcherINSt7__cxx1112regex_traitsIcEELb0ELb0ELb0EEEE9_M_invokeERKSt9_Any_dataOc
libxpum.so.1:_ZNSt17_Function_handlerIFbcENSt8__detail11_AnyMatcherINSt7__cxx1112regex_traitsIcEELb0ELb0ELb1EEEE10_M_managerERSt9_Any_dataRKS8_St18_Manager_operation
libxpum.so.1:_ZNSt17_Function_handlerIFbcENSt8__detail11_AnyMatcherINSt7__cxx1112regex_traitsIcEELb0ELb0ELb1EEEE9_M_invokeERKSt9_Any_dataOc
libxpum.so.1:_ZNSt17_Function_handlerIFbcENSt8__detail11_AnyMatcherINSt7__cxx1112regex_traitsIcEELb0ELb1ELb0EEEE10_M_managerERSt9_Any_dataRKS8_St18_Manager_operation
libxpum.so.1:_ZNSt17_Function_handlerIFbcENSt8__detail11_AnyMatcherINSt7__cxx1112regex_traitsIcEELb0ELb1ELb0EEEE9_M_invokeERKSt9_Any_dataOc
libxpum.so.1:_ZNSt17_Function_handlerIFbcENSt8__detail11_AnyMatcherINSt7__cxx1112regex_traitsIcEELb0ELb1ELb1EEEE10_M_managerERSt9_Any_dataRKS8_St18_Manager_operation
libxpum.so.1:_ZNSt17_Function_handlerIFbcENSt8__detail11_AnyMatcherINSt7__cxx1112regex_traitsIcEELb0ELb1ELb1EEEE9_M_invokeERKSt9_Any_dataOc
libxpum.so.1:_ZNSt17_Function_handlerIFbcENSt8__detail11_AnyMatcherINSt7__cxx1112regex_traitsIcEELb1ELb0ELb0EEEE10_M_managerERSt9_Any_dataRKS8_St18_Manager_operation
libxpum.so.1:_ZNSt17_Function_handlerIFbcENSt8__detail11_AnyMatcherINSt7__cxx1112regex_traitsIcEELb1ELb0ELb0EEEE9_M_invokeERKSt9_Any_dataOc
libxpum.so.1:_ZNSt17_Function_handlerIFbcENSt8__detail11_AnyMatcherINSt7__cxx1112regex_traitsIcEELb1ELb0ELb1EEEE10_M_managerERSt9_Any_dataRKS8_St18_Manager_operation
libxpum.so.1:_ZNSt17_Function_handlerIFbcENSt8__detail11_AnyMatcherINSt7__cxx1112regex_traitsIcEELb1ELb0ELb1EEEE9_M_invokeERKSt9_Any_dataOc
libxpum.so.1:_ZNSt17_Function_handlerIFbcENSt8__detail11_AnyMatcherINSt7__cxx1112regex_traitsIcEELb1ELb1ELb0EEEE10_M_managerERSt9_Any_dataRKS8_St18_Manager_operation
libxpum.so.1:_ZNSt17_Function_handlerIFbcENSt8__detail11_AnyMatcherINSt7__cxx1112regex_traitsIcEELb1ELb1ELb0EEEE9_M_invokeERKSt9_Any_dataOc
libxpum.so.1:_ZNSt17_Function_handlerIFbcENSt8__detail11_AnyMatcherINSt7__cxx1112regex_traitsIcEELb1ELb1ELb1EEEE10_M_managerERSt9_Any_dataRKS8_St18_Manager_operation
libxpum.so.1:_ZNSt17_Function_handlerIFbcENSt8__detail11_AnyMatcherINSt7__cxx1112regex_traitsIcEELb1ELb1ELb1EEEE9_M_invokeERKSt9_Any_dataOc
libxpum.so.1:_ZNSt17_Function_handlerIFbcENSt8__detail12_CharMatcherINSt7__cxx1112regex_traitsIcEELb0ELb0EEEE10_M_managerERSt9_Any_dataRKS8_St18_Manager_operation
libxpum.so.1:_ZNSt17_Function_handlerIFbcENSt8__detail12_CharMatcherINSt7__cxx1112regex_traitsIcEELb0ELb0EEEE9_M_invokeERKSt9_Any_dataOc
libxpum.so.1:_ZNSt17_Function_handlerIFbcENSt8__detail12_CharMatcherINSt7__cxx1112regex_traitsIcEELb0ELb1EEEE10_M_managerERSt9_Any_dataRKS8_St18_Manager_operation
libxpum.so.1:_ZNSt17_Function_handlerIFbcENSt8__detail12_CharMatcherINSt7__cxx1112regex_traitsIcEELb0ELb1EEEE9_M_invokeERKSt9_Any_dataOc
libxpum.so.1:_ZNSt17_Function_handlerIFbcENSt8__detail12_CharMatcherINSt7__cxx1112regex_traitsIcEELb1ELb0EEEE10_M_managerERSt9_Any_dataRKS8_St18_Manager_operation
libxpum.so.1:_ZNSt17_Function_handlerIFbcENSt8__detail12_CharMatcherINSt7__cxx1112regex_traitsIcEELb1ELb0EEEE9_M_invokeERKSt9_Any_dataOc
libxpum.so.1:_ZNSt17_Function_handlerIFbcENSt8__detail12_CharMatcherINSt7__cxx1112regex_traitsIcEELb1ELb1EEEE10_M_managerERSt9_Any_dataRKS8_St18_Manager_operation
libxpum.so.1:_ZNSt17_Function_handlerIFbcENSt8__detail12_CharMatcherINSt7__cxx1112regex_traitsIcEELb1ELb1EEEE9_M_invokeERKSt9_Any_dataOc
libxpum.so.1:_ZNSt17_Function_handlerIFbcENSt8__detail15_BracketMatcherINSt7__cxx1112regex_traitsIcEELb0ELb0EEEE10_M_managerERSt9_Any_dataRKS8_St18_Manager_operation
libxpum.so.1:_ZNSt17_Function_handlerIFbcENSt8__detail15_BracketMatcherINSt7__cxx1112regex_traitsIcEELb0ELb0EEEE9_M_invokeERKSt9_Any_dataOc
libxpum.so.1:_ZNSt17_Function_handlerIFbcENSt8__detail15_BracketMatcherINSt7__cxx1112regex_traitsIcEELb0ELb1EEEE10_M_managerERSt9_Any_dataRKS8_St18_Manager_operation
libxpum.so.1:_ZNSt17_Function_handlerIFbcENSt8__detail15_BracketMatcherINSt7__cxx1112regex_traitsIcEELb0ELb1EEEE9_M_invokeERKSt9_Any_dataOc
libxpum.so.1:_ZNSt17_Function_handlerIFbcENSt8__detail15_BracketMatcherINSt7__cxx1112regex_traitsIcEELb1ELb0EEEE10_M_managerERSt9_Any_dataRKS8_St18_Manager_operation
libxpum.so.1:_ZNSt17_Function_handlerIFbcENSt8__detail15_BracketMatcherINSt7__cxx1112regex_traitsIcEELb1ELb0EEEE9_M_invokeERKSt9_Any_dataOc
libxpum.so.1:_ZNSt17_Function_handlerIFbcENSt8__detail15_BracketMatcherINSt7__cxx1112regex_traitsIcEELb1ELb1EEEE10_M_managerERSt9_Any_dataRKS8_St18_Manager_operation
libxpum.so.1:_ZNSt17_Function_handlerIFbcENSt8__detail15_BracketMatcherINSt7__cxx1112regex_traitsIcEELb1ELb1EEEE9_M_invokeERKSt9_Any_dataOc
libxpum.so.1:_ZNSt17_Function_handlerIFvvESt5_BindIFSt8functionIS0_EvEEE10_M_managerERSt9_Any_dataRKS7_St18_Manager_operation
libxpum.so.1:_ZNSt17_Function_handlerIFvvESt5_BindIFSt8functionIS0_EvEEE9_M_invokeERKSt9_Any_data
libxpum.so.1:_ZNSt6thread24_M_thread_deps_never_runEv
libxpum.so.1:_ZNSt6vectorINSt12experimental10filesystem2v17__cxx114path5_CmptESaIS5_EED1Ev
libxpum.so.1:_ZNSt6vectorINSt12experimental10filesystem2v17__cxx114path5_CmptESaIS5_EED2Ev
libxpum.so.1:_ZNSt8__detail8_ScannerIcE18_M_eat_escape_ecmaEv
libxpum.so.1:_ZNSt8__detail8_ScannerIcE19_M_eat_escape_posixEv
libxpum.so.1:_ZZNSt9once_flag18_Prepare_executionC4IZSt9call_onceIMNSt13__future_base13_State_baseV2EFvPSt8functionIFSt10unique_ptrINS3_12_Result_baseENS7_8_DeleterEEvEEPbEJPS4_SC_SD_EEvRS_OT_DpOT0_EUlvE_EERSI_ENUlvE_4_FUNEv
libxpum.so.1:_ZZNSt9once_flag18_Prepare_executionC4IZSt9call_onceIMSt6threadFvvEJPS3_EEvRS_OT_DpOT0_EUlvE_EERS8_ENUlvE_4_FUNEv
libxpum.so.1:getXpumDevicePropertyNameString
libxpum.so.1:xpumApplyPPR
libxpum.so.1:xpumCheckStress
libxpum.so.1:xpumCreateVf
libxpum.so.1:xpumDoVgpuPrecheck
libxpum.so.1:xpumExportTopology2XML
libxpum.so.1:xpumGenerateDebugLog
libxpum.so.1:xpumGetAMCFirmwareVersions
libxpum.so.1:xpumGetAMCFirmwareVersionsErrorMsg
libxpum.so.1:xpumGetAMCSensorReading
libxpum.so.1:xpumGetAgentConfig
libxpum.so.1:xpumGetAllDeviceUtilizationByProcess
libxpum.so.1:xpumGetAllGroupIds
libxpum.so.1:xpumGetDeviceComponentOccupancyRatio
libxpum.so.1:xpumGetDeviceFrequencyRanges
libxpum.so.1:xpumGetDeviceFunctionList
libxpum.so.1:xpumGetDeviceIdByBDF
libxpum.so.1:xpumGetDeviceList
libxpum.so.1:xpumGetDevicePowerLimits
libxpum.so.1:xpumGetDevicePowerProps
libxpum.so.1:xpumGetDeviceProcessState
libxpum.so.1:xpumGetDeviceProperties
libxpum.so.1:xpumGetDeviceSchedulers
libxpum.so.1:xpumGetDeviceStandbys
libxpum.so.1:xpumGetDeviceUtilizationByProcess
libxpum.so.1:xpumGetDiagnosticsMediaCodecResult
libxpum.so.1:xpumGetDiagnosticsResult
libxpum.so.1:xpumGetDiagnosticsResultByGroup
libxpum.so.1:xpumGetDiagnosticsXeLinkThroughputResult
libxpum.so.1:xpumGetEccState
libxpum.so.1:xpumGetEngineStats
libxpum.so.1:xpumGetEngineStatsEx
libxpum.so.1:xpumGetFabricPortConfig
libxpum.so.1:xpumGetFabricThroughputStats
libxpum.so.1:xpumGetFabricThroughputStatsEx
libxpum.so.1:xpumGetFirmwareFlashErrorMsg
libxpum.so.1:xpumGetFirmwareFlashResult
libxpum.so.1:xpumGetFreqAvailableClocks
libxpum.so.1:xpumGetHealth
libxpum.so.1:xpumGetHealthByGroup
libxpum.so.1:xpumGetHealthConfig
libxpum.so.1:xpumGetHealthConfigByGroup
libxpum.so.1:xpumGetMetricsFromSysfs
libxpum.so.1:xpumGetPerformanceFactor
libxpum.so.1:xpumGetPolicy
libxpum.so.1:xpumGetPolicyByGroup
libxpum.so.1:xpumGetPrecheckErrorList
libxpum.so.1:xpumGetRealtimeMetrics
libxpum.so.1:xpumGetRealtimeMetricsEx
libxpum.so.1:xpumGetSerialNumberAndAmcFwVersion
libxpum.so.1:xpumGetStats
libxpum.so.1:xpumGetStatsByGroup
libxpum.so.1:xpumGetStatsEx
libxpum.so.1:xpumGetTopology
libxpum.so.1:xpumGetVfMetrics
libxpum.so.1:xpumGetXelinkTopology
libxpum.so.1:xpumGroupAddDevice
libxpum.so.1:xpumGroupCreate
libxpum.so.1:xpumGroupDestroy
libxpum.so.1:xpumGroupGetInfo
libxpum.so.1:xpumGroupRemoveDevice
libxpum.so.1:xpumInit
libxpum.so.1:xpumListDumpRawDataTasks
libxpum.so.1:xpumPrecheck
libxpum.so.1:xpumRemoveAllVf
libxpum.so.1:xpumResetDevice
libxpum.so.1:xpumRunDiagnostics
libxpum.so.1:xpumRunDiagnosticsByGroup
libxpum.so.1:xpumRunFirmwareFlash
libxpum.so.1:xpumRunFirmwareFlashEx
libxpum.so.1:xpumRunMultipleSpecificDiagnostics
libxpum.so.1:xpumRunMultipleSpecificDiagnosticsByGroup
libxpum.so.1:xpumRunStress
libxpum.so.1:xpumSetAgentConfig
libxpum.so.1:xpumSetDeviceFrequencyRange
libxpum.so.1:xpumSetDevicePowerSustainedLimits
libxpum.so.1:xpumSetDeviceSchedulerDebugMode
libxpum.so.1:xpumSetDeviceSchedulerExclusiveMode
libxpum.so.1:xpumSetDeviceSchedulerTimeoutMode
libxpum.so.1:xpumSetDeviceSchedulerTimesliceMode
libxpum.so.1:xpumSetDeviceStandby
libxpum.so.1:xpumSetEccState
libxpum.so.1:xpumSetFabricPortConfig
libxpum.so.1:xpumSetHealthConfig
libxpum.so.1:xpumSetHealthConfigByGroup
libxpum.so.1:xpumSetPerformanceFactor
libxpum.so.1:xpumSetPolicy
libxpum.so.1:xpumSetPolicyByGroup
libxpum.so.1:xpumShutdown
libxpum.so.1:xpumStartDumpRawDataTask
libxpum.so.1:xpumStartDumpRawDataTaskEx
libxpum.so.1:xpumStopDumpRawDataTask
libxpum.so.1:xpumVersionInfo
